
KKNios.elf:     file format elf32-littlenios2
KKNios.elf
architecture: nios2, flags 0x00000112:
EXEC_P, HAS_SYMS, D_PAGED
start address 0x001401bc

Program Header:
    LOAD off    0x00001000 vaddr 0x00140000 paddr 0x00140000 align 2**12
         filesz 0x00000000 memsz 0x00000000 flags r-x
    LOAD off    0x00001020 vaddr 0x00140020 paddr 0x00140020 align 2**12
         filesz 0x00012ec8 memsz 0x0001302c flags rwx

Sections:
Idx Name          Size      VMA       LMA       File off  Algn
  0 .entry        00000000  00140000  00140000  00001000  2**5
                  CONTENTS, ALLOC, LOAD, READONLY, CODE
  1 .exceptions   0000019c  00140020  00140020  00001020  2**2
                  CONTENTS, ALLOC, LOAD, READONLY, CODE
  2 .text         00010d00  001401bc  001401bc  000011bc  2**2
                  CONTENTS, ALLOC, LOAD, READONLY, CODE
  3 .rodata       00000540  00150ebc  00150ebc  00011ebc  2**2
                  CONTENTS, ALLOC, LOAD, READONLY, DATA
  4 .rwdata       00001aec  001513fc  001513fc  000123fc  2**2
                  CONTENTS, ALLOC, LOAD, DATA, SMALL_DATA
  5 .bss          00000164  00152ee8  00152ee8  00013ee8  2**2
                  ALLOC, SMALL_DATA
  6 .onchip_memory2 00000000  0015304c  0015304c  00013ee8  2**0
                  CONTENTS
  7 .comment      00000039  00000000  00000000  00013ee8  2**0
                  CONTENTS, READONLY
  8 .debug_aranges 00000dd8  00000000  00000000  00013f28  2**3
                  CONTENTS, READONLY, DEBUGGING
  9 .debug_info   00025b87  00000000  00000000  00014d00  2**0
                  CONTENTS, READONLY, DEBUGGING
 10 .debug_abbrev 00009b7b  00000000  00000000  0003a887  2**0
                  CONTENTS, READONLY, DEBUGGING
 11 .debug_line   0000bb07  00000000  00000000  00044402  2**0
                  CONTENTS, READONLY, DEBUGGING
 12 .debug_frame  00002480  00000000  00000000  0004ff0c  2**2
                  CONTENTS, READONLY, DEBUGGING
 13 .debug_str    00003502  00000000  00000000  0005238c  2**0
                  CONTENTS, READONLY, DEBUGGING
 14 .debug_loc    00019645  00000000  00000000  0005588e  2**0
                  CONTENTS, READONLY, DEBUGGING
 15 .debug_alt_sim_info 00000020  00000000  00000000  0006eed4  2**2
                  CONTENTS, READONLY, DEBUGGING
 16 .debug_ranges 00001798  00000000  00000000  0006eef8  2**3
                  CONTENTS, READONLY, DEBUGGING
 17 .thread_model 00000003  00000000  00000000  0007398d  2**0
                  CONTENTS, READONLY
 18 .cpu          0000000a  00000000  00000000  00073990  2**0
                  CONTENTS, READONLY
 19 .qsys         00000001  00000000  00000000  0007399a  2**0
                  CONTENTS, READONLY
 20 .simulation_enabled 00000001  00000000  00000000  0007399b  2**0
                  CONTENTS, READONLY
 21 .stderr_dev   00000009  00000000  00000000  0007399c  2**0
                  CONTENTS, READONLY
 22 .stdin_dev    00000009  00000000  00000000  000739a5  2**0
                  CONTENTS, READONLY
 23 .stdout_dev   00000009  00000000  00000000  000739ae  2**0
                  CONTENTS, READONLY
 24 .sopc_system_name 0000000a  00000000  00000000  000739b7  2**0
                  CONTENTS, READONLY
 25 .quartus_project_dir 00000049  00000000  00000000  000739c1  2**0
                  CONTENTS, READONLY
 26 .jdi          00003fa3  00000000  00000000  00073a0a  2**0
                  CONTENTS, READONLY
 27 .sopcinfo     00051c18  00000000  00000000  000779ad  2**0
                  CONTENTS, READONLY
SYMBOL TABLE:
00140000 l    d  .entry	00000000 .entry
00140020 l    d  .exceptions	00000000 .exceptions
001401bc l    d  .text	00000000 .text
00150ebc l    d  .rodata	00000000 .rodata
001513fc l    d  .rwdata	00000000 .rwdata
00152ee8 l    d  .bss	00000000 .bss
0015304c l    d  .onchip_memory2	00000000 .onchip_memory2
00000000 l    d  .comment	00000000 .comment
00000000 l    d  .debug_aranges	00000000 .debug_aranges
00000000 l    d  .debug_info	00000000 .debug_info
00000000 l    d  .debug_abbrev	00000000 .debug_abbrev
00000000 l    d  .debug_line	00000000 .debug_line
00000000 l    d  .debug_frame	00000000 .debug_frame
00000000 l    d  .debug_str	00000000 .debug_str
00000000 l    d  .debug_loc	00000000 .debug_loc
00000000 l    d  .debug_alt_sim_info	00000000 .debug_alt_sim_info
00000000 l    d  .debug_ranges	00000000 .debug_ranges
00000000 l    df *ABS*	00000000 ../KKNios_bsp//obj/HAL/src/crt0.o
00140200 l       .text	00000000 alt_after_alt_main
00000000 l    df *ABS*	00000000 alt_exception_entry.o
00140094 l       .exceptions	00000000 alt_exception_unknown
00000000 l    df *ABS*	00000000 alt_irq_handler.c
00000000 l    df *ABS*	00000000 main.c
00000000 l    df *ABS*	00000000 addsf3.c
00000000 l    df *ABS*	00000000 divsf3.c
00000000 l    df *ABS*	00000000 mulsf3.c
00000000 l    df *ABS*	00000000 subsf3.c
00000000 l    df *ABS*	00000000 fixsfsi.c
00000000 l    df *ABS*	00000000 floatsisf.c
00000000 l    df *ABS*	00000000 extendsfdf2.c
00000000 l    df *ABS*	00000000 libgcc2.c
00000000 l    df *ABS*	00000000 libgcc2.c
00000000 l    df *ABS*	00000000 memcpy.c
00000000 l    df *ABS*	00000000 printf.c
00000000 l    df *ABS*	00000000 putchar.c
00000000 l    df *ABS*	00000000 puts.c
00000000 l    df *ABS*	00000000 strlen.c
00000000 l    df *ABS*	00000000 vfprintf.c
0015114a l     O .rodata	00000010 zeroes.4155
0015115a l     O .rodata	00000010 blanks.4154
00000000 l    df *ABS*	00000000 wsetup.c
00000000 l    df *ABS*	00000000 dtoa.c
0014466c l     F .text	00000204 quorem
00000000 l    df *ABS*	00000000 fflush.c
00000000 l    df *ABS*	00000000 findfp.c
00146120 l     F .text	00000008 __fp_lock
00146128 l     F .text	00000008 __fp_unlock
00000000 l    df *ABS*	00000000 mallocr.c
00000000 l    df *ABS*	00000000 fvwrite.c
00000000 l    df *ABS*	00000000 fwalk.c
00000000 l    df *ABS*	00000000 impure.c
001513fc l     O .rwdata	00000424 impure_data
00000000 l    df *ABS*	00000000 locale.c
00151840 l     O .rwdata	00000020 lc_ctype_charset
00151820 l     O .rwdata	00000020 lc_message_charset
00151860 l     O .rwdata	00000038 lconv
00000000 l    df *ABS*	00000000 makebuf.c
00000000 l    df *ABS*	00000000 mallocr.c
00000000 l    df *ABS*	00000000 memchr.c
00000000 l    df *ABS*	00000000 memmove.c
00000000 l    df *ABS*	00000000 memset.c
00000000 l    df *ABS*	00000000 mprec.c
0015118c l     O .rodata	0000000c p05.2652
00000000 l    df *ABS*	00000000 putc.c
00000000 l    df *ABS*	00000000 mallocr.c
00000000 l    df *ABS*	00000000 s_fpclassify.c
00000000 l    df *ABS*	00000000 sbrkr.c
00000000 l    df *ABS*	00000000 stdio.c
00000000 l    df *ABS*	00000000 strcmp.c
00000000 l    df *ABS*	00000000 vfprintf.c
00149540 l     F .text	000000fc __sprint_r.part.0
001512c0 l     O .rodata	00000010 blanks.4099
001512b0 l     O .rodata	00000010 zeroes.4100
00000000 l    df *ABS*	00000000 wbuf.c
00000000 l    df *ABS*	00000000 writer.c
00000000 l    df *ABS*	00000000 closer.c
00000000 l    df *ABS*	00000000 mallocr.c
00000000 l    df *ABS*	00000000 fclose.c
00000000 l    df *ABS*	00000000 fputwc.c
00000000 l    df *ABS*	00000000 fstatr.c
00000000 l    df *ABS*	00000000 int_errno.c
00000000 l    df *ABS*	00000000 isattyr.c
00000000 l    df *ABS*	00000000 lseekr.c
00000000 l    df *ABS*	00000000 readr.c
00000000 l    df *ABS*	00000000 wcrtomb.c
00000000 l    df *ABS*	00000000 wctomb_r.c
00000000 l    df *ABS*	00000000 libgcc2.c
00000000 l    df *ABS*	00000000 libgcc2.c
00000000 l    df *ABS*	00000000 lib2-divmod.c
0014be50 l     F .text	00000070 udivmodsi4
00000000 l    df *ABS*	00000000 adddf3.c
00000000 l    df *ABS*	00000000 divdf3.c
00000000 l    df *ABS*	00000000 eqdf2.c
00000000 l    df *ABS*	00000000 gedf2.c
00000000 l    df *ABS*	00000000 ledf2.c
00000000 l    df *ABS*	00000000 muldf3.c
00000000 l    df *ABS*	00000000 subdf3.c
00000000 l    df *ABS*	00000000 fixdfsi.c
00000000 l    df *ABS*	00000000 floatsidf.c
00000000 l    df *ABS*	00000000 floatunsidf.c
00000000 l    df *ABS*	00000000 alt_close.c
0014e460 l     F .text	00000050 alt_get_errno
00000000 l    df *ABS*	00000000 alt_dev.c
0014e578 l     F .text	0000002c alt_dev_null_write
00000000 l    df *ABS*	00000000 alt_errno.c
00000000 l    df *ABS*	00000000 alt_fstat.c
0014e5a4 l     F .text	00000050 alt_get_errno
00000000 l    df *ABS*	00000000 alt_isatty.c
0014e6a0 l     F .text	00000050 alt_get_errno
00000000 l    df *ABS*	00000000 alt_lseek.c
0014e790 l     F .text	00000050 alt_get_errno
00000000 l    df *ABS*	00000000 alt_main.c
00000000 l    df *ABS*	00000000 alt_malloc_lock.c
00000000 l    df *ABS*	00000000 alt_read.c
0014e968 l     F .text	00000050 alt_get_errno
00000000 l    df *ABS*	00000000 alt_release_fd.c
00000000 l    df *ABS*	00000000 alt_sbrk.c
00152ed8 l     O .rwdata	00000004 heap_end
00000000 l    df *ABS*	00000000 alt_write.c
0014ebb8 l     F .text	00000050 alt_get_errno
00000000 l    df *ABS*	00000000 alt_sys_init.c
0014ecf4 l     F .text	00000038 alt_dev_reg
00151e48 l     O .rwdata	00001060 jtag_uart
00000000 l    df *ABS*	00000000 altera_avalon_jtag_uart_fd.c
00000000 l    df *ABS*	00000000 altera_avalon_jtag_uart_init.c
0014f018 l     F .text	000001fc altera_avalon_jtag_uart_irq
0014f214 l     F .text	000000a4 altera_avalon_jtag_uart_timeout
00000000 l    df *ABS*	00000000 altera_avalon_jtag_uart_ioctl.c
00000000 l    df *ABS*	00000000 altera_avalon_jtag_uart_read.c
00000000 l    df *ABS*	00000000 altera_avalon_jtag_uart_write.c
00000000 l    df *ABS*	00000000 altera_avalon_timer_sc.c
0014f82c l     F .text	00000074 alt_avalon_timer_sc_irq
00000000 l    df *ABS*	00000000 altera_avalon_timer_vars.c
00000000 l    df *ABS*	00000000 perf_print_formatted_report.c
00000000 l    df *ABS*	00000000 alt_alarm_start.c
00000000 l    df *ABS*	00000000 alt_dev_llist_insert.c
0014fce4 l     F .text	00000050 alt_get_errno
00000000 l    df *ABS*	00000000 alt_do_ctors.c
00000000 l    df *ABS*	00000000 alt_do_dtors.c
00000000 l    df *ABS*	00000000 alt_iic.c
00000000 l    df *ABS*	00000000 alt_iic_isr_register.c
00000000 l    df *ABS*	00000000 alt_io_redirect.c
00150154 l     F .text	000000c0 alt_open_fd
00000000 l    df *ABS*	00000000 alt_irq_vars.c
00000000 l    df *ABS*	00000000 alt_open.c
0015028c l     F .text	00000050 alt_get_errno
001502dc l     F .text	000000cc alt_file_locked
00000000 l    df *ABS*	00000000 alt_tick.c
00000000 l    df *ABS*	00000000 altera_nios2_gen2_irq.c
00000000 l    df *ABS*	00000000 altera_avalon_performance_counter.c
00000000 l    df *ABS*	00000000 alt_find_dev.c
00000000 l    df *ABS*	00000000 alt_find_file.c
00000000 l    df *ABS*	00000000 alt_get_fd.c
00000000 l    df *ABS*	00000000 atexit.c
00000000 l    df *ABS*	00000000 exit.c
00000000 l    df *ABS*	00000000 memcmp.c
00000000 l    df *ABS*	00000000 __atexit.c
00000000 l    df *ABS*	00000000 __call_atexit.c
00000000 l    df *ABS*	00000000 libgcc2.c
00000000 l    df *ABS*	00000000 alt_exit.c
001423c0 g     F .text	0000001c putchar
00148a50 g     F .text	00000074 _mprec_log10
00148b3c g     F .text	00000088 __any_on
0014afb8 g     F .text	00000064 _isatty_r
00151198 g     O .rodata	00000028 __mprec_tinytens
0014e8b0 g     F .text	00000078 alt_main
001423dc g     F .text	000000b8 _puts_r
00152f4c g     O .bss	00000100 alt_irq
0014b01c g     F .text	0000006c _lseek_r
0014d0b4 g     F .text	00000084 .hidden __eqdf2
00140414 g     F .text	00000064 kk_getdetelem
0015304c g       *ABS*	00000000 __alt_heap_start
0014237c g     F .text	0000003c printf
0014b0f4 g     F .text	0000009c _wcrtomb_r
00149438 g     F .text	0000005c __sseek
001461b8 g     F .text	0000019c __sinit
00150814 g     F .text	00000024 alt_get_cpu_freq
0014a8e8 g     F .text	00000180 __swbuf_r
00146ec8 g     F .text	00000070 _setlocale_r
0014613c g     F .text	00000064 __sfmoreglue
0014e948 g     F .text	00000020 __malloc_unlock
001411bc g     F .text	0000040c .hidden __divsf3
00152f14 g     O .bss	00000004 altera_avalon_timer_ts_freq
001479fc g     F .text	0000013c memmove
0014f928 g     F .text	0000027c perf_print_formatted_report
001461a0 g     F .text	00000018 _cleanup
00147c4c g     F .text	000000a8 _Balloc
00141ebc g     F .text	00000070 .hidden __fixsfsi
0014d138 g     F .text	000000d8 .hidden __gtdf2
00150698 g     F .text	00000020 altera_nios2_gen2_irq_init
00000000  w      *UND*	00000000 __errno
00140000 g     F .entry	00000000 __reset
00140204 g     F .text	0000004c to_float
0014af50 g     F .text	00000068 _fstat_r
00152f00 g     O .bss	00000004 errno
001493b4 g     F .text	00000008 __seofread
00152f08 g     O .bss	00000004 alt_argv
0015aea8 g       *ABS*	00000000 _gp
001419f4 g     F .text	000004c8 .hidden __subsf3
00151cc8 g     O .rwdata	00000180 alt_fd_list
001423b8 g     F .text	00000008 _putchar_r
00150838 g     F .text	00000090 alt_find_dev
00142244 g     F .text	0000010c memcpy
00140338 g     F .text	00000028 kk_isrunning
001403b0 g     F .text	00000064 kk_getintelem
00146130 g     F .text	0000000c _cleanup_r
0014e2f0 g     F .text	000000d0 .hidden __floatsidf
00150214 g     F .text	00000078 alt_io_redirect
0014d210 g     F .text	000000ec .hidden __ltdf2
00140250 g     F .text	00000058 to_bit
00150ebc g       *ABS*	00000000 __DTOR_END__
00142494 g     F .text	00000014 puts
00149294 g     F .text	00000068 __fpclassifyd
001489b0 g     F .text	000000a0 __ratio
0014a8c4 g     F .text	00000024 __vfiprintf_internal
0014f40c g     F .text	00000208 altera_avalon_jtag_uart_read
00000000  w      *UND*	00000000 malloc
00142350 g     F .text	0000002c _printf_r
0014bf54 g     F .text	00000008 .hidden __udivsi3
0014e6f0 g     F .text	000000a0 isatty
001511e8 g     O .rodata	000000c8 __mprec_tens
00146f38 g     F .text	0000000c __locale_charset
00152efc g     O .bss	00000004 __malloc_top_pad
001507b8 g     F .text	0000003c perf_get_num_starts
00152eb0 g     O .rwdata	00000004 __mb_cur_max
00146f68 g     F .text	0000000c _localeconv_r
0014804c g     F .text	0000003c __i2b
001468bc g     F .text	000004ac __sfvwrite_r
001492fc g     F .text	00000064 _sbrk_r
00140360 g     F .text	00000028 kk_getcounter
0014b088 g     F .text	0000006c _read_r
00152ed0 g     O .rwdata	00000004 alt_max_fd
0014ac18 g     F .text	00000128 _fclose_r
001460f0 g     F .text	00000030 fflush
00152ef8 g     O .bss	00000004 __malloc_max_sbrked_mem
0014209c g     F .text	000000fc .hidden __extendsfdf2
0014bf64 g     F .text	0000087c .hidden __adddf3
0014877c g     F .text	000000f0 __b2d
0014b8b8 g     F .text	00000598 .hidden __umoddi3
0014e7e0 g     F .text	000000d0 lseek
00152ea8 g     O .rwdata	00000004 _global_impure_ptr
00148d30 g     F .text	00000564 _realloc_r
0015304c g       *ABS*	00000000 __bss_end
00150064 g     F .text	000000f0 alt_iic_isr_register
00150594 g     F .text	00000104 alt_tick
0014b2f4 g     F .text	000005c4 .hidden __udivdi3
0014ad54 g     F .text	00000184 _fputwc_r
001511c0 g     O .rodata	00000028 __mprec_bigtens
00147e30 g     F .text	00000104 __s2b
0014e3c0 g     F .text	000000a0 .hidden __floatunsidf
0014850c g     F .text	00000060 __mcmp
00146480 g     F .text	00000018 __fp_lock_all
00150018 g     F .text	0000004c alt_ic_irq_enabled
001504fc g     F .text	00000098 alt_alarm_stop
00152f18 g     O .bss	00000004 alt_irq_active
001400ec g     F .exceptions	000000d0 alt_irq_handler
00151ca0 g     O .rwdata	00000028 alt_dev_null
00147f34 g     F .text	00000068 __hi0bits
0014e270 g     F .text	00000080 .hidden __fixdfsi
001406b4 g     F .text	000000f8 calculate_error
00152ec8 g     O .rwdata	00000008 alt_dev_list
0014ec08 g     F .text	000000ec write
00148bc4 g     F .text	000000a0 _putc_r
0014e5f4 g     F .text	000000ac fstat
0014d210 g     F .text	000000ec .hidden __ledf2
00148274 g     F .text	00000148 __pow5mult
00149654 g     F .text	00001270 ___vfiprintf_internal_r
00152ef0 g     O .bss	00000004 __nlocale_changed
0014bf5c g     F .text	00000008 .hidden __umodsi3
0015304c g       *ABS*	00000000 end
0014ef58 g     F .text	000000c0 altera_avalon_jtag_uart_init
00150ebc g       *ABS*	00000000 __CTOR_LIST__
00180000 g       *ABS*	00000000 __alt_stack_pointer
0014f8a0 g     F .text	00000088 alt_avalon_timer_sc_init
00142198 g     F .text	000000ac .hidden __clzsi2
0014f614 g     F .text	00000218 altera_avalon_jtag_uart_write
00146470 g     F .text	00000004 __sfp_lock_acquire
00147914 g     F .text	000000e8 memchr
00142534 g     F .text	00001fdc ___vfprintf_internal_r
001465ec g     F .text	000002d0 _free_r
00146f44 g     F .text	00000010 __locale_mb_cur_max
00150c74 g     F .text	000001a4 __call_exitprocs
00152eec g     O .bss	00000004 __mlocale_changed
00152eb4 g     O .rwdata	00000004 __malloc_sbrk_base
001401bc g     F .text	00000048 _start
00152f1c g     O .bss	00000004 _alt_tick_rate
00150e18 g     F .text	00000070 .hidden __floatundidf
001483bc g     F .text	00000150 __lshift
00152f20 g     O .bss	00000004 _alt_nticks
0014e9b8 g     F .text	000000f0 read
0014ed60 g     F .text	00000094 alt_sys_init
00141f2c g     F .text	00000170 .hidden __floatsisf
00150b58 g     F .text	0000011c __register_exitproc
00148088 g     F .text	000001ec __multiply
0014f2b8 g     F .text	00000068 altera_avalon_jtag_uart_close
00152f24 g     O .bss	00000028 __malloc_current_mallinfo
0014886c g     F .text	00000144 __d2b
0014edf4 g     F .text	00000060 altera_avalon_jtag_uart_read_fd
001509dc g     F .text	000000b4 alt_get_fd
0014aaf0 g     F .text	00000064 _close_r
001506b8 g     F .text	000000b4 perf_get_section_time
00150adc g     F .text	0000007c memcmp
0014eeb4 g     F .text	00000050 altera_avalon_jtag_uart_close_fd
0015304c g       *ABS*	00000000 __alt_stack_base
0014ef04 g     F .text	00000054 altera_avalon_jtag_uart_ioctl_fd
00144534 g     F .text	00000138 __swsetup_r
0014c7e0 g     F .text	000008d4 .hidden __divdf3
00140310 g     F .text	00000028 kk_start
00146354 g     F .text	0000011c __sfp
00148ac4 g     F .text	00000078 __copybits
0015076c g     F .text	0000004c perf_get_total_time
00151898 g     O .rwdata	00000408 __malloc_av_
0014647c g     F .text	00000004 __sinit_lock_release
0014d2fc g     F .text	000006ec .hidden __muldf3
00149360 g     F .text	00000054 __sread
001508c8 g     F .text	00000114 alt_find_file
0014fd34 g     F .text	000000a0 alt_dev_llist_insert
0014e928 g     F .text	00000020 __malloc_lock
0014eb08 g     F .text	000000b0 sbrk
00145eac g     F .text	00000244 _fflush_r
0014ab54 g     F .text	000000c4 _calloc_r
00152ee8 g       *ABS*	00000000 __bss_start
00147b38 g     F .text	00000114 memset
00140c58 g     F .text	000000ac main
00152f0c g     O .bss	00000004 alt_envp
00152ef4 g     O .bss	00000004 __malloc_max_total_mem
0014ee54 g     F .text	00000060 altera_avalon_jtag_uart_write_fd
0014aa68 g     F .text	0000001c __swbuf
00149494 g     F .text	00000008 __sclose
00180000 g       *ABS*	00000000 __alt_heap_limit
0014ad40 g     F .text	00000014 fclose
00144870 g     F .text	0000163c _dtoa_r
00147150 g     F .text	000007c4 _malloc_r
0014b268 g     F .text	00000030 __ascii_wctomb
00152ed4 g     O .rwdata	00000004 alt_errno
001407ac g     F .text	000004ac the_algorithm
00140538 g     F .text	0000017c multiply_matrix
00146d68 g     F .text	000000a8 _fwalk
00148c64 g     F .text	000000cc putc
0014bec0 g     F .text	00000048 .hidden __divsi3
001464b0 g     F .text	0000013c _malloc_trim_r
00150ebc g       *ABS*	00000000 __CTOR_END__
001415c8 g     F .text	0000042c .hidden __mulsf3
0014949c g     F .text	000000a4 strcmp
00150ebc g       *ABS*	00000000 __DTOR_LIST__
0014d0b4 g     F .text	00000084 .hidden __nedf2
0014ed2c g     F .text	00000034 alt_irq_init
0014eaa8 g     F .text	00000060 alt_release_fd
00151004 g     O .rodata	00000100 .hidden __clz_tab
00152ee8 g     O .bss	00000004 _PathLocale
001402a8 g     F .text	00000068 kk_putelem
00150a90 g     F .text	00000014 atexit
0014aa84 g     F .text	0000006c _write_r
00146f74 g     F .text	0000001c setlocale
00152eac g     O .rwdata	00000004 _impure_ptr
00152f04 g     O .bss	00000004 alt_argc
00152f10 g     O .bss	00000004 altera_avalon_timer_ts_base
0014fe30 g     F .text	0000005c _do_dtors
00146f60 g     F .text	00000008 __locale_cjk_lang
00140020 g       .exceptions	00000000 alt_irq_entry
0014871c g     F .text	00000060 __ulp
00146498 g     F .text	00000018 __fp_unlock_all
00152ec0 g     O .rwdata	00000008 alt_fs_list
00146f90 g     F .text	0000000c localeconv
00140000 g       *ABS*	00000000 __alt_mem_onchip_memory2
0014fe8c g     F .text	00000050 alt_ic_isr_register
00152ee8 g       *ABS*	00000000 _edata
0015304c g       *ABS*	00000000 _end
0014f320 g     F .text	000000ec altera_avalon_jtag_uart_ioctl
0014ff78 g     F .text	000000a0 alt_ic_irq_disable
001493bc g     F .text	0000007c __swrite
00152eb8 g     O .rwdata	00000004 __malloc_trim_threshold
001507f4 g     F .text	00000020 alt_get_performance_counter_base
00146f54 g     F .text	0000000c __locale_msgcharset
00150aa4 g     F .text	00000038 exit
00146e10 g     F .text	000000b8 _fwalk_reent
0014856c g     F .text	000001b0 __mdiff
0014bf08 g     F .text	0000004c .hidden __modsi3
00180000 g       *ABS*	00000000 __alt_data_end
00140020 g     F .exceptions	00000000 alt_exception
00146474 g     F .text	00000004 __sfp_lock_release
00140388 g     F .text	00000028 kk_divzero
00150e88 g     F .text	00000034 _exit
0014fba4 g     F .text	00000140 alt_alarm_start
00146f9c g     F .text	000001b4 __smakebuf_r
001424a8 g     F .text	0000008c strlen
001503a8 g     F .text	00000154 open
0014d138 g     F .text	000000d8 .hidden __gedf2
00152ebc g     O .rwdata	00000004 __wctomb
0014963c g     F .text	00000018 __sprint_r
00152edc g     O .rwdata	00000004 alt_priority_mask
0014fedc g     F .text	0000009c alt_ic_irq_enable
00144510 g     F .text	00000024 __vfprintf_internal
0014b298 g     F .text	0000005c _wctomb_r
0014d9e8 g     F .text	00000888 .hidden __subdf3
00147f9c g     F .text	000000b0 __lo0bits
00152ee0 g     O .rwdata	00000008 alt_alarm_list
0014fdd4 g     F .text	0000005c _do_ctors
0014b190 g     F .text	000000d8 wcrtomb
0014e4b0 g     F .text	000000c8 close
00140d04 g     F .text	000004b8 .hidden __addsf3
00140478 g     F .text	000000c0 print_matrix
0014aed8 g     F .text	00000078 fputwc
00000000  w      *UND*	00000000 free
00146478 g     F .text	00000004 __sinit_lock_acquire
00147d1c g     F .text	00000114 __multadd
00147cf4 g     F .text	00000028 _Bfree



Disassembly of section .exceptions:

00140020 <alt_exception>:

#else /* ALT_EXCEPTION_STACK disabled */
        /* 
         * Reserve space on normal stack for registers about to be pushed.
         */
        addi  sp, sp, -76
  140020:	deffed04 	addi	sp,sp,-76
         * documentation for details).
         *
         * Leave a gap in the stack frame at 4(sp) for the muldiv handler to
         * store zero into.
         */
        stw   ra,  0(sp)
  140024:	dfc00015 	stw	ra,0(sp)
        stw   r1,   8(sp)
  140028:	d8400215 	stw	at,8(sp)
        stw   r2,  12(sp)
  14002c:	d8800315 	stw	r2,12(sp)
        stw   r3,  16(sp)
  140030:	d8c00415 	stw	r3,16(sp)
        stw   r4,  20(sp)
  140034:	d9000515 	stw	r4,20(sp)
        stw   r5,  24(sp)
  140038:	d9400615 	stw	r5,24(sp)
        stw   r6,  28(sp)
  14003c:	d9800715 	stw	r6,28(sp)
        stw   r7,  32(sp)
  140040:	d9c00815 	stw	r7,32(sp)
        rdctl r5, estatus   /* Read early to avoid usage stall */
  140044:	000b307a 	rdctl	r5,estatus
        stw   r8,  36(sp)
  140048:	da000915 	stw	r8,36(sp)
        stw   r9,  40(sp)
  14004c:	da400a15 	stw	r9,40(sp)
        stw   r10, 44(sp)
  140050:	da800b15 	stw	r10,44(sp)
        stw   r11, 48(sp)
  140054:	dac00c15 	stw	r11,48(sp)
        stw   r12, 52(sp)
  140058:	db000d15 	stw	r12,52(sp)
        stw   r13, 56(sp)
  14005c:	db400e15 	stw	r13,56(sp)
        stw   r14, 60(sp)
  140060:	db800f15 	stw	r14,60(sp)
        stw   r15, 64(sp)
  140064:	dbc01015 	stw	r15,64(sp)
        /*
         * ea-4 contains the address of the instruction being executed
         * when the exception occured. For interrupt exceptions, we will
         * will be re-issue the isntruction. Store it in 72(sp)
         */
        stw   r5,  68(sp)  /* estatus */
  140068:	d9401115 	stw	r5,68(sp)
        addi  r15, ea, -4  /* instruction that caused exception */
  14006c:	ebffff04 	addi	r15,ea,-4
        stw   r15,  72(sp)
  140070:	dbc01215 	stw	r15,72(sp)
#else
        /*
         * Test to see if the exception was a software exception or caused 
         * by an external interrupt, and vector accordingly.
         */
        rdctl r4, ipending
  140074:	0009313a 	rdctl	r4,ipending
        andi  r2, r5, 1
  140078:	2880004c 	andi	r2,r5,1
        beq   r2, zero, .Lnot_irq
  14007c:	10000326 	beq	r2,zero,14008c <alt_exception+0x6c>
        beq   r4, zero, .Lnot_irq
  140080:	20000226 	beq	r4,zero,14008c <alt_exception+0x6c>
        /*
         * Now that all necessary registers have been preserved, call 
         * alt_irq_handler() to process the interrupts.
         */

        call alt_irq_handler
  140084:	01400ec0 	call	1400ec <alt_irq_handler>

        .section .exceptions.irqreturn, "xa"

        br    .Lexception_exit
  140088:	00000306 	br	140098 <alt_exception_unknown+0x4>
         * upon completion, so we write ea (address of instruction *after*
         * the one where the exception occured) into 72(sp). The actual
         * instruction that caused the exception is written in r2, which these
         * handlers will utilize.
         */
        stw   ea,  72(sp)  /* Don't re-issue */
  14008c:	df401215 	stw	ea,72(sp)
        ldhu.n  r2, 0(r4)
        ldhu.n  r3, 2(r4)
        slli.n  r3, r3, 16
        or.n    r2, r2, r3 /* Instruction that caused exception */
#else
        ldw   r2, -4(ea)   /* Instruction that caused exception */
  140090:	e8bfff17 	ldw	r2,-4(ea)

00140094 <alt_exception_unknown>:
#ifdef NIOS2_HAS_DEBUG_STUB
       /*
        *  Either tell the user now (if there is a debugger attached) or go into
        *  the debug monitor which will loop until a debugger is attached.
        */
        break
  140094:	003da03a 	break	0
        /* 
         * Restore the saved registers, so that all general purpose registers 
         * have been restored to their state at the time the interrupt occured.
         */

        ldw   r5,  68(sp)
  140098:	d9401117 	ldw	r5,68(sp)
        ldw   ea,  72(sp)  /* This becomes the PC once eret is executed */
  14009c:	df401217 	ldw	ea,72(sp)
        ldw   ra,   0(sp)
  1400a0:	dfc00017 	ldw	ra,0(sp)

        wrctl estatus, r5
  1400a4:	2801707a 	wrctl	estatus,r5

        ldw   r1,   8(sp)
  1400a8:	d8400217 	ldw	at,8(sp)
        ldw   r2,  12(sp)
  1400ac:	d8800317 	ldw	r2,12(sp)
        ldw   r3,  16(sp)
  1400b0:	d8c00417 	ldw	r3,16(sp)
        ldw   r4,  20(sp)
  1400b4:	d9000517 	ldw	r4,20(sp)
        ldw   r5,  24(sp)
  1400b8:	d9400617 	ldw	r5,24(sp)
        ldw   r6,  28(sp)
  1400bc:	d9800717 	ldw	r6,28(sp)
        ldw   r7,  32(sp)
  1400c0:	d9c00817 	ldw	r7,32(sp)

#if defined(ALT_EXCEPTION_STACK) && defined(ALT_STACK_CHECK)
        ldw   et, %gprel(alt_exception_old_stack_limit)(gp)
#endif

        ldw   r8,  36(sp)
  1400c4:	da000917 	ldw	r8,36(sp)
        ldw   r9,  40(sp)
  1400c8:	da400a17 	ldw	r9,40(sp)
        ldw   r10, 44(sp)
  1400cc:	da800b17 	ldw	r10,44(sp)
        ldw   r11, 48(sp)
  1400d0:	dac00c17 	ldw	r11,48(sp)
        ldw   r12, 52(sp)
  1400d4:	db000d17 	ldw	r12,52(sp)
        ldw   r13, 56(sp)
  1400d8:	db400e17 	ldw	r13,56(sp)
        ldw   r14, 60(sp)
  1400dc:	db800f17 	ldw	r14,60(sp)
        ldw   r15, 64(sp)
  1400e0:	dbc01017 	ldw	r15,64(sp)
        stw   et, %gprel(alt_stack_limit_value)(gp)
        stw   zero, %gprel(alt_exception_old_stack_limit)(gp)
#endif /* ALT_STACK_CHECK */
        ldw   sp,  76(sp)
#else /* ALT_EXCEPTION_STACK disabled */
        addi  sp, sp, 76
  1400e4:	dec01304 	addi	sp,sp,76

        /*
         * Return to the interrupted instruction.
         */

        eret
  1400e8:	ef80083a 	eret

001400ec <alt_irq_handler>:
 * instruction is present if the macro ALT_CI_INTERRUPT_VECTOR defined.
 */

void alt_irq_handler (void) __attribute__ ((section (".exceptions")));
void alt_irq_handler (void)
{
  1400ec:	defff904 	addi	sp,sp,-28
  1400f0:	dfc00615 	stw	ra,24(sp)
  1400f4:	df000515 	stw	fp,20(sp)
  1400f8:	df000504 	addi	fp,sp,20
  
  /*
   * Notify the operating system that we are at interrupt level.
   */ 
  
  ALT_OS_INT_ENTER();
  1400fc:	0001883a 	nop
#ifndef NIOS2_EIC_PRESENT
static ALT_INLINE alt_u32 ALT_ALWAYS_INLINE alt_irq_pending (void)
{
  alt_u32 active;

  NIOS2_READ_IPENDING (active);
  140100:	0005313a 	rdctl	r2,ipending
  140104:	e0bffe15 	stw	r2,-8(fp)

  return active;
  140108:	e0bffe17 	ldw	r2,-8(fp)
   * Consider the case where the high priority interupt is asserted during
   * the interrupt entry sequence for a lower priority interrupt to see why
   * this is the case.
   */

  active = alt_irq_pending ();
  14010c:	e0bffb15 	stw	r2,-20(fp)

  do
  {
    i = 0;
  140110:	e03ffd15 	stw	zero,-12(fp)
    mask = 1;
  140114:	00800044 	movi	r2,1
  140118:	e0bffc15 	stw	r2,-16(fp)
     * called to clear the interrupt condition.
     */

    do
    {
      if (active & mask)
  14011c:	e0fffb17 	ldw	r3,-20(fp)
  140120:	e0bffc17 	ldw	r2,-16(fp)
  140124:	1884703a 	and	r2,r3,r2
  140128:	10001726 	beq	r2,zero,140188 <alt_irq_handler+0x9c>
      { 
#ifdef ALT_ENHANCED_INTERRUPT_API_PRESENT
        alt_irq[i].handler(alt_irq[i].context); 
  14012c:	00c00574 	movhi	r3,21
  140130:	18cbd304 	addi	r3,r3,12108
  140134:	e0bffd17 	ldw	r2,-12(fp)
  140138:	100490fa 	slli	r2,r2,3
  14013c:	1885883a 	add	r2,r3,r2
  140140:	10800017 	ldw	r2,0(r2)
  140144:	01000574 	movhi	r4,21
  140148:	210bd304 	addi	r4,r4,12108
  14014c:	e0fffd17 	ldw	r3,-12(fp)
  140150:	180690fa 	slli	r3,r3,3
  140154:	20c7883a 	add	r3,r4,r3
  140158:	18c00104 	addi	r3,r3,4
  14015c:	18c00017 	ldw	r3,0(r3)
  140160:	1809883a 	mov	r4,r3
  140164:	103ee83a 	callr	r2
#else
        alt_irq[i].handler(alt_irq[i].context, i); 
#endif
        break;
  140168:	0001883a 	nop
#ifndef NIOS2_EIC_PRESENT
static ALT_INLINE alt_u32 ALT_ALWAYS_INLINE alt_irq_pending (void)
{
  alt_u32 active;

  NIOS2_READ_IPENDING (active);
  14016c:	0005313a 	rdctl	r2,ipending
  140170:	e0bfff15 	stw	r2,-4(fp)

  return active;
  140174:	e0bfff17 	ldw	r2,-4(fp)
      mask <<= 1;
      i++;

    } while (1);

    active = alt_irq_pending ();
  140178:	e0bffb15 	stw	r2,-20(fp)
    
  } while (active);
  14017c:	e0bffb17 	ldw	r2,-20(fp)
  140180:	103fe31e 	bne	r2,zero,140110 <alt_irq_handler+0x24>
  140184:	00000706 	br	1401a4 <alt_irq_handler+0xb8>
#else
        alt_irq[i].handler(alt_irq[i].context, i); 
#endif
        break;
      }
      mask <<= 1;
  140188:	e0bffc17 	ldw	r2,-16(fp)
  14018c:	1085883a 	add	r2,r2,r2
  140190:	e0bffc15 	stw	r2,-16(fp)
      i++;
  140194:	e0bffd17 	ldw	r2,-12(fp)
  140198:	10800044 	addi	r2,r2,1
  14019c:	e0bffd15 	stw	r2,-12(fp)

    } while (1);
  1401a0:	003fde06 	br	14011c <alt_irq_handler+0x30>

  /*
   * Notify the operating system that interrupt processing is complete.
   */ 

  ALT_OS_INT_EXIT();
  1401a4:	0001883a 	nop
}
  1401a8:	e037883a 	mov	sp,fp
  1401ac:	dfc00117 	ldw	ra,4(sp)
  1401b0:	df000017 	ldw	fp,0(sp)
  1401b4:	dec00204 	addi	sp,sp,8
  1401b8:	f800283a 	ret

Disassembly of section .text:

001401bc <_start>:

    /* Assume the data cache size is always a power of two. */
#if NIOS2_DCACHE_SIZE > 0x8000
    movhi r2, %hi(NIOS2_DCACHE_SIZE)
#else
    movui r2, NIOS2_DCACHE_SIZE
  1401bc:	00820014 	movui	r2,2048
#endif

0:
    initd 0(r2)
  1401c0:	10000033 	initd	0(r2)
#ifdef NIOS2_ECC_PRESENT
    addi r2, r2, -4
#else
    addi r2, r2, -NIOS2_DCACHE_LINE_SIZE
  1401c4:	10bff804 	addi	r2,r2,-32
#endif
    bgt r2, zero, 0b
  1401c8:	00bffd16 	blt	zero,r2,1401c0 <_start+0x4>

    /*
     * Now that the caches are initialized, set up the stack pointer and global pointer.
     * The values provided by the linker are assumed to be correctly aligned.
     */
    movhi sp, %hi(__alt_stack_pointer)
  1401cc:	06c00634 	movhi	sp,24
    ori sp, sp, %lo(__alt_stack_pointer)
  1401d0:	dec00014 	ori	sp,sp,0
    movhi gp, %hi(_gp)
  1401d4:	06800574 	movhi	gp,21
    ori gp, gp, %lo(_gp)
  1401d8:	d6abaa14 	ori	gp,gp,44712
 */
#ifndef ALT_SIM_OPTIMIZE
    /* Log that the BSS is about to be cleared. */
    ALT_LOG_PUTS(alt_log_msg_bss)

    movhi r2, %hi(__bss_start)
  1401dc:	00800574 	movhi	r2,21
    ori r2, r2, %lo(__bss_start)
  1401e0:	108bba14 	ori	r2,r2,12008

    movhi r3, %hi(__bss_end)
  1401e4:	00c00574 	movhi	r3,21
    ori r3, r3, %lo(__bss_end)
  1401e8:	18cc1314 	ori	r3,r3,12364

    beq r2, r3, 1f
  1401ec:	10c00326 	beq	r2,r3,1401fc <_start+0x40>

0:
    stw zero, (r2)
  1401f0:	10000015 	stw	zero,0(r2)
    addi r2, r2, 4
  1401f4:	10800104 	addi	r2,r2,4
    bltu r2, r3, 0b
  1401f8:	10fffd36 	bltu	r2,r3,1401f0 <_start+0x34>

    /* Log that alt_main is about to be called. */
    ALT_LOG_PUTS(alt_log_msg_alt_main)

    /* Call the C entry point. It should never return. */
    call alt_main
  1401fc:	014e8b00 	call	14e8b0 <alt_main>

00140200 <alt_after_alt_main>:

    /* Wait in infinite loop in case alt_main does return. */
alt_after_alt_main:
    br alt_after_alt_main
  140200:	003fff06 	br	140200 <alt_after_alt_main>

00140204 <to_float>:
 *
 * @param elem Fixedpoint element.
 *
 * @return Float element.
 */
float to_float(int elem) {
  140204:	defffd04 	addi	sp,sp,-12
  140208:	dfc00215 	stw	ra,8(sp)
  14020c:	df000115 	stw	fp,4(sp)
  140210:	df000104 	addi	fp,sp,4
  140214:	e13fff15 	stw	r4,-4(fp)
	return elem / (float) FRAC;
  140218:	e13fff17 	ldw	r4,-4(fp)
  14021c:	0141f2c0 	call	141f2c <__floatsisf>
  140220:	1007883a 	mov	r3,r2
  140224:	1809883a 	mov	r4,r3
  140228:	0151e034 	movhi	r5,18304
  14022c:	01411bc0 	call	1411bc <__divsf3>
  140230:	1009883a 	mov	r4,r2
  140234:	2007883a 	mov	r3,r4
  140238:	1805883a 	mov	r2,r3
}
  14023c:	e037883a 	mov	sp,fp
  140240:	dfc00117 	ldw	ra,4(sp)
  140244:	df000017 	ldw	fp,0(sp)
  140248:	dec00204 	addi	sp,sp,8
  14024c:	f800283a 	ret

00140250 <to_bit>:
 *
 * @param elem Float element.
 *
 * @return Fixedpoint element.
 */
int to_bit(float elem) {
  140250:	defffc04 	addi	sp,sp,-16
  140254:	dfc00315 	stw	ra,12(sp)
  140258:	df000215 	stw	fp,8(sp)
  14025c:	df000204 	addi	fp,sp,8
  140260:	e13fff15 	stw	r4,-4(fp)
	int e = elem * FRAC;
  140264:	e13fff17 	ldw	r4,-4(fp)
  140268:	0151e034 	movhi	r5,18304
  14026c:	01415c80 	call	1415c8 <__mulsf3>
  140270:	1007883a 	mov	r3,r2
  140274:	1805883a 	mov	r2,r3
  140278:	1009883a 	mov	r4,r2
  14027c:	0141ebc0 	call	141ebc <__fixsfsi>
  140280:	e0bffe15 	stw	r2,-8(fp)
	return ((e & 0x80000000) >> (32 - (FRAC_BIT + INT_BIT))) | e;
  140284:	e0bffe17 	ldw	r2,-8(fp)
  140288:	10e0002c 	andhi	r3,r2,32768
  14028c:	e0bffe17 	ldw	r2,-8(fp)
  140290:	1884b03a 	or	r2,r3,r2
}
  140294:	e037883a 	mov	sp,fp
  140298:	dfc00117 	ldw	ra,4(sp)
  14029c:	df000017 	ldw	fp,0(sp)
  1402a0:	dec00204 	addi	sp,sp,8
  1402a4:	f800283a 	ret

001402a8 <kk_putelem>:
 *
 * @param elem Float element.
 * @param i Line index.
 * @param j Column index.
 */
void kk_putelem(float elem, int i, int j) {
  1402a8:	defffa04 	addi	sp,sp,-24
  1402ac:	dfc00515 	stw	ra,20(sp)
  1402b0:	df000415 	stw	fp,16(sp)
  1402b4:	dc000315 	stw	r16,12(sp)
  1402b8:	df000404 	addi	fp,sp,16
  1402bc:	e13ffc15 	stw	r4,-16(fp)
  1402c0:	e17ffd15 	stw	r5,-12(fp)
  1402c4:	e1bffe15 	stw	r6,-8(fp)
	IOWR_32DIRECT(KK_ACCEL_BASE, (((i << 8) & 0xff00) | (j & 0xff)) << 2, to_bit(elem));
  1402c8:	e0bffd17 	ldw	r2,-12(fp)
  1402cc:	1004923a 	slli	r2,r2,8
  1402d0:	10ffffcc 	andi	r3,r2,65535
  1402d4:	e0bffe17 	ldw	r2,-8(fp)
  1402d8:	10803fcc 	andi	r2,r2,255
  1402dc:	1884b03a 	or	r2,r3,r2
  1402e0:	1085883a 	add	r2,r2,r2
  1402e4:	1085883a 	add	r2,r2,r2
  1402e8:	1021883a 	mov	r16,r2
  1402ec:	e13ffc17 	ldw	r4,-16(fp)
  1402f0:	01402500 	call	140250 <to_bit>
  1402f4:	80800035 	stwio	r2,0(r16)
}
  1402f8:	e6ffff04 	addi	sp,fp,-4
  1402fc:	dfc00217 	ldw	ra,8(sp)
  140300:	df000117 	ldw	fp,4(sp)
  140304:	dc000017 	ldw	r16,0(sp)
  140308:	dec00304 	addi	sp,sp,12
  14030c:	f800283a 	ret

00140310 <kk_start>:

/**
 * @brief Start iterations.
 */
void kk_start(void) {
  140310:	deffff04 	addi	sp,sp,-4
  140314:	df000015 	stw	fp,0(sp)
  140318:	d839883a 	mov	fp,sp
	IOWR_32DIRECT(KK_ACCEL_BASE, 0x10000 << 2, 0);
  14031c:	0007883a 	mov	r3,zero
  140320:	00800134 	movhi	r2,4
  140324:	10c00035 	stwio	r3,0(r2)
}
  140328:	e037883a 	mov	sp,fp
  14032c:	df000017 	ldw	fp,0(sp)
  140330:	dec00104 	addi	sp,sp,4
  140334:	f800283a 	ret

00140338 <kk_isrunning>:
/**
 * @brief Check if system is still running.
 *
 * @return 1 if system is still running, 0 otherwise.
 */
char kk_isrunning(void) {
  140338:	deffff04 	addi	sp,sp,-4
  14033c:	df000015 	stw	fp,0(sp)
  140340:	d839883a 	mov	fp,sp
	return IORD_32DIRECT(KK_ACCEL_BASE, 0x10001 << 2);
  140344:	00800134 	movhi	r2,4
  140348:	10800104 	addi	r2,r2,4
  14034c:	10800037 	ldwio	r2,0(r2)
}
  140350:	e037883a 	mov	sp,fp
  140354:	df000017 	ldw	fp,0(sp)
  140358:	dec00104 	addi	sp,sp,4
  14035c:	f800283a 	ret

00140360 <kk_getcounter>:
/**
 * @brief Return cycles counter.
 *
 * @return Cycles counter.
 */
unsigned int kk_getcounter(void) {
  140360:	deffff04 	addi	sp,sp,-4
  140364:	df000015 	stw	fp,0(sp)
  140368:	d839883a 	mov	fp,sp
	return IORD_32DIRECT(KK_ACCEL_BASE, 0x10002 << 2);
  14036c:	00800134 	movhi	r2,4
  140370:	10800204 	addi	r2,r2,8
  140374:	10800037 	ldwio	r2,0(r2)
}
  140378:	e037883a 	mov	sp,fp
  14037c:	df000017 	ldw	fp,0(sp)
  140380:	dec00104 	addi	sp,sp,4
  140384:	f800283a 	ret

00140388 <kk_divzero>:
/**
 * @brief Return division by zero flag.
 *
 * @return 1 if any division by zero occurred, 0 otherwise.
 */
char kk_divzero(void) {
  140388:	deffff04 	addi	sp,sp,-4
  14038c:	df000015 	stw	fp,0(sp)
  140390:	d839883a 	mov	fp,sp
	return IORD_32DIRECT(KK_ACCEL_BASE, 0x10003 << 2);
  140394:	00800134 	movhi	r2,4
  140398:	10800304 	addi	r2,r2,12
  14039c:	10800037 	ldwio	r2,0(r2)
}
  1403a0:	e037883a 	mov	sp,fp
  1403a4:	df000017 	ldw	fp,0(sp)
  1403a8:	dec00104 	addi	sp,sp,4
  1403ac:	f800283a 	ret

001403b0 <kk_getintelem>:
 * @param i Line index.
 * @param j Column index.
 *
 * @return Intermediate matrix element as float.
 */
float kk_getintelem(int i, int j) {
  1403b0:	defffc04 	addi	sp,sp,-16
  1403b4:	dfc00315 	stw	ra,12(sp)
  1403b8:	df000215 	stw	fp,8(sp)
  1403bc:	df000204 	addi	fp,sp,8
  1403c0:	e13ffe15 	stw	r4,-8(fp)
  1403c4:	e17fff15 	stw	r5,-4(fp)
	return to_float(IORD_32DIRECT(KK_ACCEL_BASE, (0x20000 | ((i << 8) & 0xff00) | (j & 0xff)) << 2));
  1403c8:	e0bffe17 	ldw	r2,-8(fp)
  1403cc:	1004923a 	slli	r2,r2,8
  1403d0:	10bfffcc 	andi	r2,r2,65535
  1403d4:	10c000b4 	orhi	r3,r2,2
  1403d8:	e0bfff17 	ldw	r2,-4(fp)
  1403dc:	10803fcc 	andi	r2,r2,255
  1403e0:	1884b03a 	or	r2,r3,r2
  1403e4:	1085883a 	add	r2,r2,r2
  1403e8:	1085883a 	add	r2,r2,r2
  1403ec:	10800037 	ldwio	r2,0(r2)
  1403f0:	1009883a 	mov	r4,r2
  1403f4:	01402040 	call	140204 <to_float>
  1403f8:	1007883a 	mov	r3,r2
  1403fc:	1805883a 	mov	r2,r3
}
  140400:	e037883a 	mov	sp,fp
  140404:	dfc00117 	ldw	ra,4(sp)
  140408:	df000017 	ldw	fp,0(sp)
  14040c:	dec00204 	addi	sp,sp,8
  140410:	f800283a 	ret

00140414 <kk_getdetelem>:
 * @param i Line index.
 * @param j Column index.
 *
 * @return Determinant matrix element as float.
 */
float kk_getdetelem(int i, int j) {
  140414:	defffc04 	addi	sp,sp,-16
  140418:	dfc00315 	stw	ra,12(sp)
  14041c:	df000215 	stw	fp,8(sp)
  140420:	df000204 	addi	fp,sp,8
  140424:	e13ffe15 	stw	r4,-8(fp)
  140428:	e17fff15 	stw	r5,-4(fp)
	return to_float(IORD_32DIRECT(KK_ACCEL_BASE, (0x30000 | ((i << 8) & 0xff00) | (j & 0xff)) << 2));
  14042c:	e0bffe17 	ldw	r2,-8(fp)
  140430:	1004923a 	slli	r2,r2,8
  140434:	10bfffcc 	andi	r2,r2,65535
  140438:	10c000f4 	orhi	r3,r2,3
  14043c:	e0bfff17 	ldw	r2,-4(fp)
  140440:	10803fcc 	andi	r2,r2,255
  140444:	1884b03a 	or	r2,r3,r2
  140448:	1085883a 	add	r2,r2,r2
  14044c:	1085883a 	add	r2,r2,r2
  140450:	10800037 	ldwio	r2,0(r2)
  140454:	1009883a 	mov	r4,r2
  140458:	01402040 	call	140204 <to_float>
  14045c:	1007883a 	mov	r3,r2
  140460:	1805883a 	mov	r2,r3
}
  140464:	e037883a 	mov	sp,fp
  140468:	dfc00117 	ldw	ra,4(sp)
  14046c:	df000017 	ldw	fp,0(sp)
  140470:	dec00204 	addi	sp,sp,8
  140474:	f800283a 	ret

00140478 <print_matrix>:
/**
 * @brief Print a matrix.
 *
 * @param matrix N-by-N matrix.
 */
void print_matrix(float matrix[N][N]) {
  140478:	defffb04 	addi	sp,sp,-20
  14047c:	dfc00415 	stw	ra,16(sp)
  140480:	df000315 	stw	fp,12(sp)
  140484:	df000304 	addi	fp,sp,12
  140488:	e13fff15 	stw	r4,-4(fp)
	int i, j;
	for(i = 0; i < N; i++) {
  14048c:	e03ffd15 	stw	zero,-12(fp)
  140490:	00001f06 	br	140510 <print_matrix+0x98>
		for(j = 0; j < N; j++) {
  140494:	e03ffe15 	stw	zero,-8(fp)
  140498:	00001506 	br	1404f0 <print_matrix+0x78>
			printf("\t %.2f", matrix[i][j]);
  14049c:	e0bffd17 	ldw	r2,-12(fp)
  1404a0:	1004913a 	slli	r2,r2,4
  1404a4:	e0ffff17 	ldw	r3,-4(fp)
  1404a8:	1887883a 	add	r3,r3,r2
  1404ac:	e0bffe17 	ldw	r2,-8(fp)
  1404b0:	1085883a 	add	r2,r2,r2
  1404b4:	1085883a 	add	r2,r2,r2
  1404b8:	1887883a 	add	r3,r3,r2
  1404bc:	18800017 	ldw	r2,0(r3)
  1404c0:	1009883a 	mov	r4,r2
  1404c4:	014209c0 	call	14209c <__extendsfdf2>
  1404c8:	100d883a 	mov	r6,r2
  1404cc:	180f883a 	mov	r7,r3
  1404d0:	01000574 	movhi	r4,21
  1404d4:	2103af04 	addi	r4,r4,3772
  1404d8:	300b883a 	mov	r5,r6
  1404dc:	380d883a 	mov	r6,r7
  1404e0:	014237c0 	call	14237c <printf>
 * @param matrix N-by-N matrix.
 */
void print_matrix(float matrix[N][N]) {
	int i, j;
	for(i = 0; i < N; i++) {
		for(j = 0; j < N; j++) {
  1404e4:	e0bffe17 	ldw	r2,-8(fp)
  1404e8:	10800044 	addi	r2,r2,1
  1404ec:	e0bffe15 	stw	r2,-8(fp)
  1404f0:	e0bffe17 	ldw	r2,-8(fp)
  1404f4:	10800110 	cmplti	r2,r2,4
  1404f8:	103fe81e 	bne	r2,zero,14049c <print_matrix+0x24>
			printf("\t %.2f", matrix[i][j]);
		}
		printf("\n");
  1404fc:	01000284 	movi	r4,10
  140500:	01423c00 	call	1423c0 <putchar>
 *
 * @param matrix N-by-N matrix.
 */
void print_matrix(float matrix[N][N]) {
	int i, j;
	for(i = 0; i < N; i++) {
  140504:	e0bffd17 	ldw	r2,-12(fp)
  140508:	10800044 	addi	r2,r2,1
  14050c:	e0bffd15 	stw	r2,-12(fp)
  140510:	e0bffd17 	ldw	r2,-12(fp)
  140514:	10800110 	cmplti	r2,r2,4
  140518:	103fde1e 	bne	r2,zero,140494 <print_matrix+0x1c>
		for(j = 0; j < N; j++) {
			printf("\t %.2f", matrix[i][j]);
		}
		printf("\n");
	}
	printf("\n");
  14051c:	01000284 	movi	r4,10
  140520:	01423c00 	call	1423c0 <putchar>
}
  140524:	e037883a 	mov	sp,fp
  140528:	dfc00117 	ldw	ra,4(sp)
  14052c:	df000017 	ldw	fp,0(sp)
  140530:	dec00204 	addi	sp,sp,8
  140534:	f800283a 	ret

00140538 <multiply_matrix>:
 *
 * @param A First N-by-N matrix.
 * @param B Second N-by-N matrix.
 * @param C Result N-by-N matrix.
 */
void multiply_matrix(float A[N][N], float B[N][N], float C[N][N]) {
  140538:	defff604 	addi	sp,sp,-40
  14053c:	dfc00915 	stw	ra,36(sp)
  140540:	df000815 	stw	fp,32(sp)
  140544:	dc400715 	stw	r17,28(sp)
  140548:	dc000615 	stw	r16,24(sp)
  14054c:	df000804 	addi	fp,sp,32
  140550:	e13ffb15 	stw	r4,-20(fp)
  140554:	e17ffc15 	stw	r5,-16(fp)
  140558:	e1bffd15 	stw	r6,-12(fp)
	int i, j, k;
	for(i = 0; i < N; i++) {
  14055c:	e03ff815 	stw	zero,-32(fp)
  140560:	00004a06 	br	14068c <multiply_matrix+0x154>
		for(j = 0; j < N; j++) {
  140564:	e03ff915 	stw	zero,-28(fp)
  140568:	00004206 	br	140674 <multiply_matrix+0x13c>
			C[i][j] = 0;
  14056c:	e0bff817 	ldw	r2,-32(fp)
  140570:	1004913a 	slli	r2,r2,4
  140574:	e0fffd17 	ldw	r3,-12(fp)
  140578:	1887883a 	add	r3,r3,r2
  14057c:	e0bff917 	ldw	r2,-28(fp)
  140580:	1085883a 	add	r2,r2,r2
  140584:	1085883a 	add	r2,r2,r2
  140588:	1885883a 	add	r2,r3,r2
  14058c:	10000015 	stw	zero,0(r2)
			for(k = 0; k < N; k++)
  140590:	e03ffa15 	stw	zero,-24(fp)
  140594:	00003106 	br	14065c <multiply_matrix+0x124>
				C[i][j] += A[i][k] * B[k][j];
  140598:	e0bff817 	ldw	r2,-32(fp)
  14059c:	1004913a 	slli	r2,r2,4
  1405a0:	e0fffd17 	ldw	r3,-12(fp)
  1405a4:	18a1883a 	add	r16,r3,r2
  1405a8:	e0bff817 	ldw	r2,-32(fp)
  1405ac:	1004913a 	slli	r2,r2,4
  1405b0:	e0fffd17 	ldw	r3,-12(fp)
  1405b4:	1887883a 	add	r3,r3,r2
  1405b8:	e0bff917 	ldw	r2,-28(fp)
  1405bc:	1085883a 	add	r2,r2,r2
  1405c0:	1085883a 	add	r2,r2,r2
  1405c4:	1885883a 	add	r2,r3,r2
  1405c8:	14400017 	ldw	r17,0(r2)
  1405cc:	e0bff817 	ldw	r2,-32(fp)
  1405d0:	1004913a 	slli	r2,r2,4
  1405d4:	e0fffb17 	ldw	r3,-20(fp)
  1405d8:	1887883a 	add	r3,r3,r2
  1405dc:	e0bffa17 	ldw	r2,-24(fp)
  1405e0:	1085883a 	add	r2,r2,r2
  1405e4:	1085883a 	add	r2,r2,r2
  1405e8:	1885883a 	add	r2,r3,r2
  1405ec:	10c00017 	ldw	r3,0(r2)
  1405f0:	e0bffa17 	ldw	r2,-24(fp)
  1405f4:	1004913a 	slli	r2,r2,4
  1405f8:	e13ffc17 	ldw	r4,-16(fp)
  1405fc:	2089883a 	add	r4,r4,r2
  140600:	e0bff917 	ldw	r2,-28(fp)
  140604:	1085883a 	add	r2,r2,r2
  140608:	1085883a 	add	r2,r2,r2
  14060c:	2089883a 	add	r4,r4,r2
  140610:	20800017 	ldw	r2,0(r4)
  140614:	1809883a 	mov	r4,r3
  140618:	100b883a 	mov	r5,r2
  14061c:	01415c80 	call	1415c8 <__mulsf3>
  140620:	1007883a 	mov	r3,r2
  140624:	1805883a 	mov	r2,r3
  140628:	8809883a 	mov	r4,r17
  14062c:	100b883a 	mov	r5,r2
  140630:	0140d040 	call	140d04 <__addsf3>
  140634:	1009883a 	mov	r4,r2
  140638:	2007883a 	mov	r3,r4
  14063c:	e0bff917 	ldw	r2,-28(fp)
  140640:	1085883a 	add	r2,r2,r2
  140644:	1085883a 	add	r2,r2,r2
  140648:	8085883a 	add	r2,r16,r2
  14064c:	10c00015 	stw	r3,0(r2)
void multiply_matrix(float A[N][N], float B[N][N], float C[N][N]) {
	int i, j, k;
	for(i = 0; i < N; i++) {
		for(j = 0; j < N; j++) {
			C[i][j] = 0;
			for(k = 0; k < N; k++)
  140650:	e0bffa17 	ldw	r2,-24(fp)
  140654:	10800044 	addi	r2,r2,1
  140658:	e0bffa15 	stw	r2,-24(fp)
  14065c:	e0bffa17 	ldw	r2,-24(fp)
  140660:	10800110 	cmplti	r2,r2,4
  140664:	103fcc1e 	bne	r2,zero,140598 <multiply_matrix+0x60>
 * @param C Result N-by-N matrix.
 */
void multiply_matrix(float A[N][N], float B[N][N], float C[N][N]) {
	int i, j, k;
	for(i = 0; i < N; i++) {
		for(j = 0; j < N; j++) {
  140668:	e0bff917 	ldw	r2,-28(fp)
  14066c:	10800044 	addi	r2,r2,1
  140670:	e0bff915 	stw	r2,-28(fp)
  140674:	e0bff917 	ldw	r2,-28(fp)
  140678:	10800110 	cmplti	r2,r2,4
  14067c:	103fbb1e 	bne	r2,zero,14056c <multiply_matrix+0x34>
 * @param B Second N-by-N matrix.
 * @param C Result N-by-N matrix.
 */
void multiply_matrix(float A[N][N], float B[N][N], float C[N][N]) {
	int i, j, k;
	for(i = 0; i < N; i++) {
  140680:	e0bff817 	ldw	r2,-32(fp)
  140684:	10800044 	addi	r2,r2,1
  140688:	e0bff815 	stw	r2,-32(fp)
  14068c:	e0bff817 	ldw	r2,-32(fp)
  140690:	10800110 	cmplti	r2,r2,4
  140694:	103fb31e 	bne	r2,zero,140564 <multiply_matrix+0x2c>
			C[i][j] = 0;
			for(k = 0; k < N; k++)
				C[i][j] += A[i][k] * B[k][j];
		}
	}
}
  140698:	e6fffe04 	addi	sp,fp,-8
  14069c:	dfc00317 	ldw	ra,12(sp)
  1406a0:	df000217 	ldw	fp,8(sp)
  1406a4:	dc400117 	ldw	r17,4(sp)
  1406a8:	dc000017 	ldw	r16,0(sp)
  1406ac:	dec00404 	addi	sp,sp,16
  1406b0:	f800283a 	ret

001406b4 <calculate_error>:
 *
 * @param matrix N-by-N matrix.
 *
 * @return Error distance. Less is better.
 */
float calculate_error(float matrix[N][N]) {
  1406b4:	defffa04 	addi	sp,sp,-24
  1406b8:	dfc00515 	stw	ra,20(sp)
  1406bc:	df000415 	stw	fp,16(sp)
  1406c0:	df000404 	addi	fp,sp,16
  1406c4:	e13fff15 	stw	r4,-4(fp)
	int i, j;
	float val = 0;
  1406c8:	e03ffe15 	stw	zero,-8(fp)

	for(i = 0; i < N; i++) {
  1406cc:	e03ffc15 	stw	zero,-16(fp)
  1406d0:	00002706 	br	140770 <calculate_error+0xbc>
		for(j = 0; j < N; j++) {
  1406d4:	e03ffd15 	stw	zero,-12(fp)
  1406d8:	00001f06 	br	140758 <calculate_error+0xa4>
			val += fabs(((i == j)? 1 : 0) - matrix[i][j]);
  1406dc:	e0fffc17 	ldw	r3,-16(fp)
  1406e0:	e0bffd17 	ldw	r2,-12(fp)
  1406e4:	1880021e 	bne	r3,r2,1406f0 <calculate_error+0x3c>
  1406e8:	008fe034 	movhi	r2,16256
  1406ec:	00000106 	br	1406f4 <calculate_error+0x40>
  1406f0:	0005883a 	mov	r2,zero
  1406f4:	e0fffc17 	ldw	r3,-16(fp)
  1406f8:	1806913a 	slli	r3,r3,4
  1406fc:	e13fff17 	ldw	r4,-4(fp)
  140700:	20c9883a 	add	r4,r4,r3
  140704:	e0fffd17 	ldw	r3,-12(fp)
  140708:	18c7883a 	add	r3,r3,r3
  14070c:	18c7883a 	add	r3,r3,r3
  140710:	20c9883a 	add	r4,r4,r3
  140714:	20c00017 	ldw	r3,0(r4)
  140718:	1009883a 	mov	r4,r2
  14071c:	180b883a 	mov	r5,r3
  140720:	01419f40 	call	1419f4 <__subsf3>
  140724:	1009883a 	mov	r4,r2
  140728:	2007883a 	mov	r3,r4
  14072c:	00a00034 	movhi	r2,32768
  140730:	10bfffc4 	addi	r2,r2,-1
  140734:	1884703a 	and	r2,r3,r2
  140738:	e13ffe17 	ldw	r4,-8(fp)
  14073c:	100b883a 	mov	r5,r2
  140740:	0140d040 	call	140d04 <__addsf3>
  140744:	1007883a 	mov	r3,r2
  140748:	e0fffe15 	stw	r3,-8(fp)
float calculate_error(float matrix[N][N]) {
	int i, j;
	float val = 0;

	for(i = 0; i < N; i++) {
		for(j = 0; j < N; j++) {
  14074c:	e0bffd17 	ldw	r2,-12(fp)
  140750:	10800044 	addi	r2,r2,1
  140754:	e0bffd15 	stw	r2,-12(fp)
  140758:	e0bffd17 	ldw	r2,-12(fp)
  14075c:	10800110 	cmplti	r2,r2,4
  140760:	103fde1e 	bne	r2,zero,1406dc <calculate_error+0x28>
 */
float calculate_error(float matrix[N][N]) {
	int i, j;
	float val = 0;

	for(i = 0; i < N; i++) {
  140764:	e0bffc17 	ldw	r2,-16(fp)
  140768:	10800044 	addi	r2,r2,1
  14076c:	e0bffc15 	stw	r2,-16(fp)
  140770:	e0bffc17 	ldw	r2,-16(fp)
  140774:	10800110 	cmplti	r2,r2,4
  140778:	103fd61e 	bne	r2,zero,1406d4 <calculate_error+0x20>
		for(j = 0; j < N; j++) {
			val += fabs(((i == j)? 1 : 0) - matrix[i][j]);
		}
	}

	val /= N * N;
  14077c:	e13ffe17 	ldw	r4,-8(fp)
  140780:	01506034 	movhi	r5,16768
  140784:	01411bc0 	call	1411bc <__divsf3>
  140788:	1007883a 	mov	r3,r2
  14078c:	e0fffe15 	stw	r3,-8(fp)

	return val;
  140790:	e0fffe17 	ldw	r3,-8(fp)
  140794:	1805883a 	mov	r2,r3
}
  140798:	e037883a 	mov	sp,fp
  14079c:	dfc00117 	ldw	ra,4(sp)
  1407a0:	df000017 	ldw	fp,0(sp)
  1407a4:	dec00204 	addi	sp,sp,8
  1407a8:	f800283a 	ret

001407ac <the_algorithm>:

/**
 * @brief Run KK Algorithm.
 */
void the_algorithm(void) {
  1407ac:	deffa804 	addi	sp,sp,-352
  1407b0:	dfc05715 	stw	ra,348(sp)
  1407b4:	df005615 	stw	fp,344(sp)
  1407b8:	df005604 	addi	fp,sp,344
								{1, 2, 4},
								{1, 3, 9}
							};
#elif N == 4
	/* 4 x 4 Vandermonde Matrix */
	float matrix_O[N][N] = {
  1407bc:	00800574 	movhi	r2,21
  1407c0:	1083dd04 	addi	r2,r2,3956
  1407c4:	e13fb004 	addi	r4,fp,-320
  1407c8:	1007883a 	mov	r3,r2
  1407cc:	00801004 	movi	r2,64
  1407d0:	180b883a 	mov	r5,r3
  1407d4:	100d883a 	mov	r6,r2
  1407d8:	01422440 	call	142244 <memcpy>
	/* Calculated identity matrix based on calculated inverted matrix */
	float matrix_IC[N][N];
	/* Error distance from true identity */
	float error;
	/* Auxiliary variables */
	int i, j, next = ((N + 2) % 3), prev = (N % 3), curr = (N + 1) % 3;
  1407dc:	e03fac15 	stw	zero,-336(fp)
  1407e0:	00800044 	movi	r2,1
  1407e4:	e0bfad15 	stw	r2,-332(fp)
  1407e8:	00800084 	movi	r2,2
  1407ec:	e0bfae15 	stw	r2,-328(fp)
	/* Timestamp before: Transfer matrix */
	then[0] = alt_timestamp();
#endif
#ifdef ACTIVATE_PERFCOUNT
	/* Start performance counter: Transfer matrix */
	PERF_BEGIN(PERFORMANCE_COUNTER_BASE, 1);
  1407f0:	0007883a 	mov	r3,zero
  1407f4:	00800634 	movhi	r2,24
  1407f8:	10840504 	addi	r2,r2,4116
  1407fc:	10c00035 	stwio	r3,0(r2)
#endif

	/* Transfer matrix */
	for(i = 0; i < N; i++)
  140800:	e03faa15 	stw	zero,-344(fp)
  140804:	00001a06 	br	140870 <the_algorithm+0xc4>
		for(j = 0; j < N; j++)
  140808:	e03fab15 	stw	zero,-340(fp)
  14080c:	00001206 	br	140858 <the_algorithm+0xac>
			kk_putelem(matrix_O[i][j], i, j);
  140810:	e0bfaa17 	ldw	r2,-344(fp)
  140814:	1085883a 	add	r2,r2,r2
  140818:	1087883a 	add	r3,r2,r2
  14081c:	e0bfab17 	ldw	r2,-340(fp)
  140820:	1885883a 	add	r2,r3,r2
  140824:	1085883a 	add	r2,r2,r2
  140828:	1085883a 	add	r2,r2,r2
  14082c:	e0ffaa04 	addi	r3,fp,-344
  140830:	1885883a 	add	r2,r3,r2
  140834:	10c00604 	addi	r3,r2,24
  140838:	18800017 	ldw	r2,0(r3)
  14083c:	1009883a 	mov	r4,r2
  140840:	e17faa17 	ldw	r5,-344(fp)
  140844:	e1bfab17 	ldw	r6,-340(fp)
  140848:	01402a80 	call	1402a8 <kk_putelem>
	PERF_BEGIN(PERFORMANCE_COUNTER_BASE, 1);
#endif

	/* Transfer matrix */
	for(i = 0; i < N; i++)
		for(j = 0; j < N; j++)
  14084c:	e0bfab17 	ldw	r2,-340(fp)
  140850:	10800044 	addi	r2,r2,1
  140854:	e0bfab15 	stw	r2,-340(fp)
  140858:	e0bfab17 	ldw	r2,-340(fp)
  14085c:	10800110 	cmplti	r2,r2,4
  140860:	103feb1e 	bne	r2,zero,140810 <the_algorithm+0x64>
	/* Start performance counter: Transfer matrix */
	PERF_BEGIN(PERFORMANCE_COUNTER_BASE, 1);
#endif

	/* Transfer matrix */
	for(i = 0; i < N; i++)
  140864:	e0bfaa17 	ldw	r2,-344(fp)
  140868:	10800044 	addi	r2,r2,1
  14086c:	e0bfaa15 	stw	r2,-344(fp)
  140870:	e0bfaa17 	ldw	r2,-344(fp)
  140874:	10800110 	cmplti	r2,r2,4
  140878:	103fe31e 	bne	r2,zero,140808 <the_algorithm+0x5c>
	/* Timestamp before: KK Iterations */
	then[1] = alt_timestamp();
#endif
#ifdef ACTIVATE_PERFCOUNT
	/* Stop performance counter: Transfer matrix */
	PERF_END(PERFORMANCE_COUNTER_BASE, 1);
  14087c:	0007883a 	mov	r3,zero
  140880:	00800634 	movhi	r2,24
  140884:	10840404 	addi	r2,r2,4112
  140888:	10c00035 	stwio	r3,0(r2)

	/* Start performance counter: KK Iterations */
	PERF_BEGIN(PERFORMANCE_COUNTER_BASE, 2);
  14088c:	0007883a 	mov	r3,zero
  140890:	00800634 	movhi	r2,24
  140894:	10840904 	addi	r2,r2,4132
  140898:	10c00035 	stwio	r3,0(r2)
#endif

	/* Start and wait for custom hardware to finish */
	kk_start();
  14089c:	01403100 	call	140310 <kk_start>
	while(kk_isrunning());
  1408a0:	0001883a 	nop
  1408a4:	01403380 	call	140338 <kk_isrunning>
  1408a8:	10803fcc 	andi	r2,r2,255
  1408ac:	1080201c 	xori	r2,r2,128
  1408b0:	10bfe004 	addi	r2,r2,-128
  1408b4:	103ffb1e 	bne	r2,zero,1408a4 <the_algorithm+0xf8>

	/* Get elements */
	for(i = 0; i < N; i++) {
  1408b8:	e03faa15 	stw	zero,-344(fp)
  1408bc:	00003106 	br	140984 <the_algorithm+0x1d8>
		for(j = 0; j < N; j++) {
  1408c0:	e03fab15 	stw	zero,-340(fp)
  1408c4:	00002906 	br	14096c <the_algorithm+0x1c0>
			matrix_K[prev][i][j] = kk_getintelem(i, j);
  1408c8:	e13faa17 	ldw	r4,-344(fp)
  1408cc:	e17fab17 	ldw	r5,-340(fp)
  1408d0:	01403b00 	call	1403b0 <kk_getintelem>
  1408d4:	1007883a 	mov	r3,r2
  1408d8:	e0bfad17 	ldw	r2,-332(fp)
  1408dc:	1085883a 	add	r2,r2,r2
  1408e0:	1089883a 	add	r4,r2,r2
  1408e4:	e0bfaa17 	ldw	r2,-344(fp)
  1408e8:	2085883a 	add	r2,r4,r2
  1408ec:	1085883a 	add	r2,r2,r2
  1408f0:	1089883a 	add	r4,r2,r2
  1408f4:	e0bfab17 	ldw	r2,-340(fp)
  1408f8:	2085883a 	add	r2,r4,r2
  1408fc:	1085883a 	add	r2,r2,r2
  140900:	1085883a 	add	r2,r2,r2
  140904:	e13faa04 	addi	r4,fp,-344
  140908:	2085883a 	add	r2,r4,r2
  14090c:	10801604 	addi	r2,r2,88
  140910:	10c00015 	stw	r3,0(r2)
			matrix_K[curr][i][j] = kk_getdetelem(i, j);
  140914:	e13faa17 	ldw	r4,-344(fp)
  140918:	e17fab17 	ldw	r5,-340(fp)
  14091c:	01404140 	call	140414 <kk_getdetelem>
  140920:	1007883a 	mov	r3,r2
  140924:	e0bfae17 	ldw	r2,-328(fp)
  140928:	1085883a 	add	r2,r2,r2
  14092c:	1089883a 	add	r4,r2,r2
  140930:	e0bfaa17 	ldw	r2,-344(fp)
  140934:	2085883a 	add	r2,r4,r2
  140938:	1085883a 	add	r2,r2,r2
  14093c:	1089883a 	add	r4,r2,r2
  140940:	e0bfab17 	ldw	r2,-340(fp)
  140944:	2085883a 	add	r2,r4,r2
  140948:	1085883a 	add	r2,r2,r2
  14094c:	1085883a 	add	r2,r2,r2
  140950:	e13faa04 	addi	r4,fp,-344
  140954:	2085883a 	add	r2,r4,r2
  140958:	10801604 	addi	r2,r2,88
  14095c:	10c00015 	stw	r3,0(r2)
	kk_start();
	while(kk_isrunning());

	/* Get elements */
	for(i = 0; i < N; i++) {
		for(j = 0; j < N; j++) {
  140960:	e0bfab17 	ldw	r2,-340(fp)
  140964:	10800044 	addi	r2,r2,1
  140968:	e0bfab15 	stw	r2,-340(fp)
  14096c:	e0bfab17 	ldw	r2,-340(fp)
  140970:	10800110 	cmplti	r2,r2,4
  140974:	103fd41e 	bne	r2,zero,1408c8 <the_algorithm+0x11c>
	/* Start and wait for custom hardware to finish */
	kk_start();
	while(kk_isrunning());

	/* Get elements */
	for(i = 0; i < N; i++) {
  140978:	e0bfaa17 	ldw	r2,-344(fp)
  14097c:	10800044 	addi	r2,r2,1
  140980:	e0bfaa15 	stw	r2,-344(fp)
  140984:	e0bfaa17 	ldw	r2,-344(fp)
  140988:	10800110 	cmplti	r2,r2,4
  14098c:	103fcc1e 	bne	r2,zero,1408c0 <the_algorithm+0x114>
	/* Timestamp after: KK Iterations */
	now[1] = alt_timestamp();
#endif
#ifdef ACTIVATE_PERFCOUNT
	/* Stop performance counter: KK Iterations */
	PERF_END(PERFORMANCE_COUNTER_BASE, 2);
  140990:	0007883a 	mov	r3,zero
  140994:	00800634 	movhi	r2,24
  140998:	10840804 	addi	r2,r2,4128
  14099c:	10c00035 	stwio	r3,0(r2)
#endif

	/* Print intermediate matrix */
	printf("################################################\n");
  1409a0:	01000574 	movhi	r4,21
  1409a4:	2103b104 	addi	r4,r4,3780
  1409a8:	01424940 	call	142494 <puts>
	printf("Matrix K+1: K = %d\n", N);
  1409ac:	01000574 	movhi	r4,21
  1409b0:	2103be04 	addi	r4,r4,3832
  1409b4:	01400104 	movi	r5,4
  1409b8:	014237c0 	call	14237c <printf>
	print_matrix(matrix_K[curr]);
  1409bc:	e0ffc004 	addi	r3,fp,-256
  1409c0:	e0bfae17 	ldw	r2,-328(fp)
  1409c4:	100491ba 	slli	r2,r2,6
  1409c8:	1885883a 	add	r2,r3,r2
  1409cc:	1009883a 	mov	r4,r2
  1409d0:	01404780 	call	140478 <print_matrix>
	/* Timestamp before: Final iteration */
	then[2] = alt_timestamp();
#endif
#ifdef ACTIVATE_PERFCOUNT
	/* Start performance counter: Final iteration */
	PERF_BEGIN(PERFORMANCE_COUNTER_BASE, 3);
  1409d4:	0007883a 	mov	r3,zero
  1409d8:	00800634 	movhi	r2,24
  1409dc:	10840d04 	addi	r2,r2,4148
  1409e0:	10c00035 	stwio	r3,0(r2)
#endif

	/* Final iteration: Calculate inverse */
	for(i = 0; i < N; i++)
  1409e4:	e03faa15 	stw	zero,-344(fp)
  1409e8:	00005106 	br	140b30 <the_algorithm+0x384>
		for(j = 0; j < N; j++)
  1409ec:	e03fab15 	stw	zero,-340(fp)
  1409f0:	00004906 	br	140b18 <the_algorithm+0x36c>
				matrix_K[next][i][j] = (matrix_K[prev][(j + 1) % N][(i + 1) % N] / matrix_K[curr][i][j]);
  1409f4:	e0bfab17 	ldw	r2,-340(fp)
  1409f8:	10c00044 	addi	r3,r2,1
  1409fc:	00a00034 	movhi	r2,32768
  140a00:	108000c4 	addi	r2,r2,3
  140a04:	1884703a 	and	r2,r3,r2
  140a08:	1000040e 	bge	r2,zero,140a1c <the_algorithm+0x270>
  140a0c:	10bfffc4 	addi	r2,r2,-1
  140a10:	00ffff04 	movi	r3,-4
  140a14:	10c4b03a 	or	r2,r2,r3
  140a18:	10800044 	addi	r2,r2,1
  140a1c:	1009883a 	mov	r4,r2
  140a20:	e0bfaa17 	ldw	r2,-344(fp)
  140a24:	10c00044 	addi	r3,r2,1
  140a28:	00a00034 	movhi	r2,32768
  140a2c:	108000c4 	addi	r2,r2,3
  140a30:	1884703a 	and	r2,r3,r2
  140a34:	1000040e 	bge	r2,zero,140a48 <the_algorithm+0x29c>
  140a38:	10bfffc4 	addi	r2,r2,-1
  140a3c:	00ffff04 	movi	r3,-4
  140a40:	10c4b03a 	or	r2,r2,r3
  140a44:	10800044 	addi	r2,r2,1
  140a48:	1007883a 	mov	r3,r2
  140a4c:	e0bfad17 	ldw	r2,-332(fp)
  140a50:	1085883a 	add	r2,r2,r2
  140a54:	1085883a 	add	r2,r2,r2
  140a58:	1105883a 	add	r2,r2,r4
  140a5c:	1085883a 	add	r2,r2,r2
  140a60:	1085883a 	add	r2,r2,r2
  140a64:	10c5883a 	add	r2,r2,r3
  140a68:	1085883a 	add	r2,r2,r2
  140a6c:	1085883a 	add	r2,r2,r2
  140a70:	e0ffaa04 	addi	r3,fp,-344
  140a74:	1885883a 	add	r2,r3,r2
  140a78:	10801604 	addi	r2,r2,88
  140a7c:	10c00017 	ldw	r3,0(r2)
  140a80:	e0bfae17 	ldw	r2,-328(fp)
  140a84:	1085883a 	add	r2,r2,r2
  140a88:	1089883a 	add	r4,r2,r2
  140a8c:	e0bfaa17 	ldw	r2,-344(fp)
  140a90:	2085883a 	add	r2,r4,r2
  140a94:	1085883a 	add	r2,r2,r2
  140a98:	1089883a 	add	r4,r2,r2
  140a9c:	e0bfab17 	ldw	r2,-340(fp)
  140aa0:	2085883a 	add	r2,r4,r2
  140aa4:	1085883a 	add	r2,r2,r2
  140aa8:	1085883a 	add	r2,r2,r2
  140aac:	e13faa04 	addi	r4,fp,-344
  140ab0:	2085883a 	add	r2,r4,r2
  140ab4:	11001604 	addi	r4,r2,88
  140ab8:	20800017 	ldw	r2,0(r4)
  140abc:	1809883a 	mov	r4,r3
  140ac0:	100b883a 	mov	r5,r2
  140ac4:	01411bc0 	call	1411bc <__divsf3>
  140ac8:	1009883a 	mov	r4,r2
  140acc:	2007883a 	mov	r3,r4
  140ad0:	e0bfac17 	ldw	r2,-336(fp)
  140ad4:	1085883a 	add	r2,r2,r2
  140ad8:	1089883a 	add	r4,r2,r2
  140adc:	e0bfaa17 	ldw	r2,-344(fp)
  140ae0:	2085883a 	add	r2,r4,r2
  140ae4:	1085883a 	add	r2,r2,r2
  140ae8:	1089883a 	add	r4,r2,r2
  140aec:	e0bfab17 	ldw	r2,-340(fp)
  140af0:	2085883a 	add	r2,r4,r2
  140af4:	1085883a 	add	r2,r2,r2
  140af8:	1085883a 	add	r2,r2,r2
  140afc:	e13faa04 	addi	r4,fp,-344
  140b00:	2085883a 	add	r2,r4,r2
  140b04:	10801604 	addi	r2,r2,88
  140b08:	10c00015 	stw	r3,0(r2)
	PERF_BEGIN(PERFORMANCE_COUNTER_BASE, 3);
#endif

	/* Final iteration: Calculate inverse */
	for(i = 0; i < N; i++)
		for(j = 0; j < N; j++)
  140b0c:	e0bfab17 	ldw	r2,-340(fp)
  140b10:	10800044 	addi	r2,r2,1
  140b14:	e0bfab15 	stw	r2,-340(fp)
  140b18:	e0bfab17 	ldw	r2,-340(fp)
  140b1c:	10800110 	cmplti	r2,r2,4
  140b20:	103fb41e 	bne	r2,zero,1409f4 <the_algorithm+0x248>
	/* Start performance counter: Final iteration */
	PERF_BEGIN(PERFORMANCE_COUNTER_BASE, 3);
#endif

	/* Final iteration: Calculate inverse */
	for(i = 0; i < N; i++)
  140b24:	e0bfaa17 	ldw	r2,-344(fp)
  140b28:	10800044 	addi	r2,r2,1
  140b2c:	e0bfaa15 	stw	r2,-344(fp)
  140b30:	e0bfaa17 	ldw	r2,-344(fp)
  140b34:	10800110 	cmplti	r2,r2,4
  140b38:	103fac1e 	bne	r2,zero,1409ec <the_algorithm+0x240>
	/* Timestamp after: Final iteration */
	now[2] = alt_timestamp();
#endif
#ifdef ACTIVATE_PERFCOUNT
	/* Stop performance counter: Final iteration */
	PERF_END(PERFORMANCE_COUNTER_BASE, 3);
  140b3c:	0007883a 	mov	r3,zero
  140b40:	00800634 	movhi	r2,24
  140b44:	10840c04 	addi	r2,r2,4144
  140b48:	10c00035 	stwio	r3,0(r2)
#endif

	/* Print inverted matrix */
	printf("################################################\n");
  140b4c:	01000574 	movhi	r4,21
  140b50:	2103b104 	addi	r4,r4,3780
  140b54:	01424940 	call	142494 <puts>
	printf("Inverted matrix:\n");
  140b58:	01000574 	movhi	r4,21
  140b5c:	2103c304 	addi	r4,r4,3852
  140b60:	01424940 	call	142494 <puts>
	print_matrix(matrix_K[next]);
  140b64:	e0ffc004 	addi	r3,fp,-256
  140b68:	e0bfac17 	ldw	r2,-336(fp)
  140b6c:	100491ba 	slli	r2,r2,6
  140b70:	1885883a 	add	r2,r3,r2
  140b74:	1009883a 	mov	r4,r2
  140b78:	01404780 	call	140478 <print_matrix>
	/* Timestamp before: Calculate identity */
	then[3] = alt_timestamp();
#endif
#ifdef ACTIVATE_PERFCOUNT
	/* Start performance counter: Calculate identity */
	PERF_BEGIN(PERFORMANCE_COUNTER_BASE, 4);
  140b7c:	0007883a 	mov	r3,zero
  140b80:	00800634 	movhi	r2,24
  140b84:	10841104 	addi	r2,r2,4164
  140b88:	10c00035 	stwio	r3,0(r2)
#endif

	/* Calculate identity */
	multiply_matrix(matrix_K[next], matrix_O, matrix_IC);
  140b8c:	e0ffc004 	addi	r3,fp,-256
  140b90:	e0bfac17 	ldw	r2,-336(fp)
  140b94:	100491ba 	slli	r2,r2,6
  140b98:	1889883a 	add	r4,r3,r2
  140b9c:	e0ffb004 	addi	r3,fp,-320
  140ba0:	e0bff004 	addi	r2,fp,-64
  140ba4:	180b883a 	mov	r5,r3
  140ba8:	100d883a 	mov	r6,r2
  140bac:	01405380 	call	140538 <multiply_matrix>
	/* Timestamp after: Calculate identity */
	now[3] = alt_timestamp();
#endif
#ifdef ACTIVATE_PERFCOUNT
	/* Stop performance counter: Calculate identity */
	PERF_END(PERFORMANCE_COUNTER_BASE, 4);
  140bb0:	0007883a 	mov	r3,zero
  140bb4:	00800634 	movhi	r2,24
  140bb8:	10841004 	addi	r2,r2,4160
  140bbc:	10c00035 	stwio	r3,0(r2)
#endif

	/* Print calculated identity matrix */
	printf("################################################\n");
  140bc0:	01000574 	movhi	r4,21
  140bc4:	2103b104 	addi	r4,r4,3780
  140bc8:	01424940 	call	142494 <puts>
	printf("Calculated identity based on calculated inverted matrix:\n");
  140bcc:	01000574 	movhi	r4,21
  140bd0:	2103c804 	addi	r4,r4,3872
  140bd4:	01424940 	call	142494 <puts>
	print_matrix(matrix_IC);
  140bd8:	e0bff004 	addi	r2,fp,-64
  140bdc:	1009883a 	mov	r4,r2
  140be0:	01404780 	call	140478 <print_matrix>
	printf("################################################\n");
  140be4:	01000574 	movhi	r4,21
  140be8:	2103b104 	addi	r4,r4,3780
  140bec:	01424940 	call	142494 <puts>
	/* Timestamp before: Calculate error */
	then[4] = alt_timestamp();
#endif
#ifdef ACTIVATE_PERFCOUNT
	/* Start performance counter: Calculate error */
	PERF_BEGIN(PERFORMANCE_COUNTER_BASE, 5);
  140bf0:	0007883a 	mov	r3,zero
  140bf4:	00800634 	movhi	r2,24
  140bf8:	10841504 	addi	r2,r2,4180
  140bfc:	10c00035 	stwio	r3,0(r2)
#endif

	/* Calculate error */
	error = calculate_error(matrix_IC);
  140c00:	e0bff004 	addi	r2,fp,-64
  140c04:	1009883a 	mov	r4,r2
  140c08:	01406b40 	call	1406b4 <calculate_error>
  140c0c:	e0bfaf15 	stw	r2,-324(fp)
	/* Timestamp after: Calculate error */
	now[4] = alt_timestamp();
#endif
#ifdef ACTIVATE_PERFCOUNT
	/* Stop performance counter: Calculate error */
	PERF_END(PERFORMANCE_COUNTER_BASE, 5);
  140c10:	0007883a 	mov	r3,zero
  140c14:	00800634 	movhi	r2,24
  140c18:	10841404 	addi	r2,r2,4176
  140c1c:	10c00035 	stwio	r3,0(r2)
#endif

	/* Print error */
	printf("Error distance: %.8lf\n", error);
  140c20:	e13faf17 	ldw	r4,-324(fp)
  140c24:	014209c0 	call	14209c <__extendsfdf2>
  140c28:	100d883a 	mov	r6,r2
  140c2c:	180f883a 	mov	r7,r3
  140c30:	01000574 	movhi	r4,21
  140c34:	2103d704 	addi	r4,r4,3932
  140c38:	300b883a 	mov	r5,r6
  140c3c:	380d883a 	mov	r6,r7
  140c40:	014237c0 	call	14237c <printf>
	printf("Timestamp 1: Iterations: %u ticks\n", now[1] - then[1]);
	printf("Timestamp 2: Final iteration: %u ticks\n", now[2] - then[2]);
	printf("Timestamp 3: Calculated identity: %u ticks\n", now[3] - then[3]);
	printf("Timestamp 4: Error distance: %u ticks\n", now[4] - then[4]);
#endif
}
  140c44:	e037883a 	mov	sp,fp
  140c48:	dfc00117 	ldw	ra,4(sp)
  140c4c:	df000017 	ldw	fp,0(sp)
  140c50:	dec00204 	addi	sp,sp,8
  140c54:	f800283a 	ret

00140c58 <main>:

/**
 * @brief Main function.
 */
int main(void) {
  140c58:	defffa04 	addi	sp,sp,-24
  140c5c:	dfc00515 	stw	ra,20(sp)
  140c60:	df000415 	stw	fp,16(sp)
  140c64:	df000404 	addi	fp,sp,16
	/* Start timestamp counter */
	alt_timestamp_start();
#endif
#ifdef ACTIVATE_PERFCOUNT
	/* Reset and start global counter */
	PERF_RESET(PERFORMANCE_COUNTER_BASE);
  140c68:	00c00044 	movi	r3,1
  140c6c:	00800634 	movhi	r2,24
  140c70:	10840004 	addi	r2,r2,4096
  140c74:	10c00035 	stwio	r3,0(r2)
	PERF_START_MEASURING(PERFORMANCE_COUNTER_BASE);
  140c78:	0007883a 	mov	r3,zero
  140c7c:	00800634 	movhi	r2,24
  140c80:	10840104 	addi	r2,r2,4100
  140c84:	10c00035 	stwio	r3,0(r2)
#endif

	/* Execute algorithm */
	the_algorithm();
  140c88:	01407ac0 	call	1407ac <the_algorithm>

#ifdef ACTIVATE_PERFCOUNT
	/* Stop global counter */
	PERF_STOP_MEASURING(PERFORMANCE_COUNTER_BASE);
  140c8c:	0007883a 	mov	r3,zero
  140c90:	00800634 	movhi	r2,24
  140c94:	10840004 	addi	r2,r2,4096
  140c98:	10c00035 	stwio	r3,0(r2)

	/* Print performance counter report */
	perf_print_formatted_report(PERFORMANCE_COUNTER_BASE, ALT_CPU_FREQ, 5,
  140c9c:	00800574 	movhi	r2,21
  140ca0:	1083f104 	addi	r2,r2,4036
  140ca4:	d8800015 	stw	r2,0(sp)
  140ca8:	00800574 	movhi	r2,21
  140cac:	1083f404 	addi	r2,r2,4048
  140cb0:	d8800115 	stw	r2,4(sp)
  140cb4:	00800574 	movhi	r2,21
  140cb8:	1083f804 	addi	r2,r2,4064
  140cbc:	d8800215 	stw	r2,8(sp)
  140cc0:	00800574 	movhi	r2,21
  140cc4:	1083fd04 	addi	r2,r2,4084
  140cc8:	d8800315 	stw	r2,12(sp)
  140ccc:	01000634 	movhi	r4,24
  140cd0:	21040004 	addi	r4,r4,4096
  140cd4:	01405f74 	movhi	r5,381
  140cd8:	295e1004 	addi	r5,r5,30784
  140cdc:	01800144 	movi	r6,5
  140ce0:	01c00574 	movhi	r7,21
  140ce4:	39c3ed04 	addi	r7,r7,4020
  140ce8:	014f9280 	call	14f928 <perf_print_formatted_report>
							"Last iteration",
							"Calculated identity",
							"Error distance");
#endif

	return 0;
  140cec:	0005883a 	mov	r2,zero
}
  140cf0:	e037883a 	mov	sp,fp
  140cf4:	dfc00117 	ldw	ra,4(sp)
  140cf8:	df000017 	ldw	fp,0(sp)
  140cfc:	dec00204 	addi	sp,sp,8
  140d00:	f800283a 	ret

00140d04 <__addsf3>:
  140d04:	defffc04 	addi	sp,sp,-16
  140d08:	2004d7fa 	srli	r2,r4,31
  140d0c:	2810d5fa 	srli	r8,r5,23
  140d10:	dc000015 	stw	r16,0(sp)
  140d14:	280ed7fa 	srli	r7,r5,31
  140d18:	2020d5fa 	srli	r16,r4,23
  140d1c:	01802034 	movhi	r6,128
  140d20:	31bfffc4 	addi	r6,r6,-1
  140d24:	3106703a 	and	r3,r6,r4
  140d28:	dc400115 	stw	r17,4(sp)
  140d2c:	314a703a 	and	r5,r6,r5
  140d30:	dfc00315 	stw	ra,12(sp)
  140d34:	dc800215 	stw	r18,8(sp)
  140d38:	14403fcc 	andi	r17,r2,255
  140d3c:	84003fcc 	andi	r16,r16,255
  140d40:	180690fa 	slli	r3,r3,3
  140d44:	41003fcc 	andi	r4,r8,255
  140d48:	280a90fa 	slli	r5,r5,3
  140d4c:	89c03b26 	beq	r17,r7,140e3c <__addsf3+0x138>
  140d50:	8105c83a 	sub	r2,r16,r4
  140d54:	0080710e 	bge	zero,r2,140f1c <__addsf3+0x218>
  140d58:	20001e1e 	bne	r4,zero,140dd4 <__addsf3+0xd0>
  140d5c:	2800521e 	bne	r5,zero,140ea8 <__addsf3+0x1a4>
  140d60:	188001cc 	andi	r2,r3,7
  140d64:	10000426 	beq	r2,zero,140d78 <__addsf3+0x74>
  140d68:	190003cc 	andi	r4,r3,15
  140d6c:	00800104 	movi	r2,4
  140d70:	20800126 	beq	r4,r2,140d78 <__addsf3+0x74>
  140d74:	18c00104 	addi	r3,r3,4
  140d78:	1901002c 	andhi	r4,r3,1024
  140d7c:	8805883a 	mov	r2,r17
  140d80:	20002526 	beq	r4,zero,140e18 <__addsf3+0x114>
  140d84:	84000044 	addi	r16,r16,1
  140d88:	01003fc4 	movi	r4,255
  140d8c:	81006e26 	beq	r16,r4,140f48 <__addsf3+0x244>
  140d90:	180691ba 	slli	r3,r3,6
  140d94:	1806d27a 	srli	r3,r3,9
  140d98:	84003fcc 	andi	r16,r16,255
  140d9c:	802095fa 	slli	r16,r16,23
  140da0:	10803fcc 	andi	r2,r2,255
  140da4:	100897fa 	slli	r4,r2,31
  140da8:	00802034 	movhi	r2,128
  140dac:	10bfffc4 	addi	r2,r2,-1
  140db0:	1884703a 	and	r2,r3,r2
  140db4:	1404b03a 	or	r2,r2,r16
  140db8:	1104b03a 	or	r2,r2,r4
  140dbc:	dfc00317 	ldw	ra,12(sp)
  140dc0:	dc800217 	ldw	r18,8(sp)
  140dc4:	dc400117 	ldw	r17,4(sp)
  140dc8:	dc000017 	ldw	r16,0(sp)
  140dcc:	dec00404 	addi	sp,sp,16
  140dd0:	f800283a 	ret
  140dd4:	01003fc4 	movi	r4,255
  140dd8:	813fe126 	beq	r16,r4,140d60 <__addsf3+0x5c>
  140ddc:	29410034 	orhi	r5,r5,1024
  140de0:	010006c4 	movi	r4,27
  140de4:	2080f016 	blt	r4,r2,1411a8 <__addsf3+0x4a4>
  140de8:	01000804 	movi	r4,32
  140dec:	2089c83a 	sub	r4,r4,r2
  140df0:	2908983a 	sll	r4,r5,r4
  140df4:	288ad83a 	srl	r5,r5,r2
  140df8:	2004c03a 	cmpne	r2,r4,zero
  140dfc:	1144b03a 	or	r2,r2,r5
  140e00:	1887c83a 	sub	r3,r3,r2
  140e04:	00002b06 	br	140eb4 <__addsf3+0x1b0>
  140e08:	0005883a 	mov	r2,zero
  140e0c:	00c10034 	movhi	r3,1024
  140e10:	18fffe04 	addi	r3,r3,-8
  140e14:	04003fc4 	movi	r16,255
  140e18:	01003fc4 	movi	r4,255
  140e1c:	1806d0fa 	srli	r3,r3,3
  140e20:	8100021e 	bne	r16,r4,140e2c <__addsf3+0x128>
  140e24:	18004826 	beq	r3,zero,140f48 <__addsf3+0x244>
  140e28:	18c01034 	orhi	r3,r3,64
  140e2c:	01002034 	movhi	r4,128
  140e30:	213fffc4 	addi	r4,r4,-1
  140e34:	1906703a 	and	r3,r3,r4
  140e38:	003fd706 	br	140d98 <__addsf3+0x94>
  140e3c:	810dc83a 	sub	r6,r16,r4
  140e40:	0180480e 	bge	zero,r6,140f64 <__addsf3+0x260>
  140e44:	20002f26 	beq	r4,zero,140f04 <__addsf3+0x200>
  140e48:	01003fc4 	movi	r4,255
  140e4c:	813fc426 	beq	r16,r4,140d60 <__addsf3+0x5c>
  140e50:	29410034 	orhi	r5,r5,1024
  140e54:	010006c4 	movi	r4,27
  140e58:	2180d616 	blt	r4,r6,1411b4 <__addsf3+0x4b0>
  140e5c:	01000804 	movi	r4,32
  140e60:	2189c83a 	sub	r4,r4,r6
  140e64:	2908983a 	sll	r4,r5,r4
  140e68:	298cd83a 	srl	r6,r5,r6
  140e6c:	200ac03a 	cmpne	r5,r4,zero
  140e70:	298ab03a 	or	r5,r5,r6
  140e74:	1947883a 	add	r3,r3,r5
  140e78:	1901002c 	andhi	r4,r3,1024
  140e7c:	203fb826 	beq	r4,zero,140d60 <__addsf3+0x5c>
  140e80:	84000044 	addi	r16,r16,1
  140e84:	01003fc4 	movi	r4,255
  140e88:	81005f26 	beq	r16,r4,141008 <__addsf3+0x304>
  140e8c:	00bf0034 	movhi	r2,64512
  140e90:	10bfffc4 	addi	r2,r2,-1
  140e94:	1884703a 	and	r2,r3,r2
  140e98:	1004d07a 	srli	r2,r2,1
  140e9c:	18c0004c 	andi	r3,r3,1
  140ea0:	10c6b03a 	or	r3,r2,r3
  140ea4:	003fae06 	br	140d60 <__addsf3+0x5c>
  140ea8:	10bfffc4 	addi	r2,r2,-1
  140eac:	1000381e 	bne	r2,zero,140f90 <__addsf3+0x28c>
  140eb0:	1947c83a 	sub	r3,r3,r5
  140eb4:	1881002c 	andhi	r2,r3,1024
  140eb8:	103fa926 	beq	r2,zero,140d60 <__addsf3+0x5c>
  140ebc:	04810034 	movhi	r18,1024
  140ec0:	94bfffc4 	addi	r18,r18,-1
  140ec4:	1ca4703a 	and	r18,r3,r18
  140ec8:	9009883a 	mov	r4,r18
  140ecc:	01421980 	call	142198 <__clzsi2>
  140ed0:	10bffec4 	addi	r2,r2,-5
  140ed4:	90a4983a 	sll	r18,r18,r2
  140ed8:	14001d16 	blt	r2,r16,140f50 <__addsf3+0x24c>
  140edc:	1421c83a 	sub	r16,r2,r16
  140ee0:	00c007c4 	movi	r3,31
  140ee4:	1c07c83a 	sub	r3,r3,r16
  140ee8:	90c6983a 	sll	r3,r18,r3
  140eec:	84000044 	addi	r16,r16,1
  140ef0:	9424d83a 	srl	r18,r18,r16
  140ef4:	1806c03a 	cmpne	r3,r3,zero
  140ef8:	0021883a 	mov	r16,zero
  140efc:	1c86b03a 	or	r3,r3,r18
  140f00:	003f9706 	br	140d60 <__addsf3+0x5c>
  140f04:	283f9626 	beq	r5,zero,140d60 <__addsf3+0x5c>
  140f08:	31bfffc4 	addi	r6,r6,-1
  140f0c:	303fd926 	beq	r6,zero,140e74 <__addsf3+0x170>
  140f10:	01003fc4 	movi	r4,255
  140f14:	813fcf1e 	bne	r16,r4,140e54 <__addsf3+0x150>
  140f18:	003f9106 	br	140d60 <__addsf3+0x5c>
  140f1c:	10001f1e 	bne	r2,zero,140f9c <__addsf3+0x298>
  140f20:	80800044 	addi	r2,r16,1
  140f24:	10803fcc 	andi	r2,r2,255
  140f28:	01000044 	movi	r4,1
  140f2c:	2080430e 	bge	r4,r2,14103c <__addsf3+0x338>
  140f30:	1965c83a 	sub	r18,r3,r5
  140f34:	9081002c 	andhi	r2,r18,1024
  140f38:	10002426 	beq	r2,zero,140fcc <__addsf3+0x2c8>
  140f3c:	28e5c83a 	sub	r18,r5,r3
  140f40:	3823883a 	mov	r17,r7
  140f44:	003fe006 	br	140ec8 <__addsf3+0x1c4>
  140f48:	0007883a 	mov	r3,zero
  140f4c:	003f9206 	br	140d98 <__addsf3+0x94>
  140f50:	00ff0034 	movhi	r3,64512
  140f54:	18ffffc4 	addi	r3,r3,-1
  140f58:	80a1c83a 	sub	r16,r16,r2
  140f5c:	90c6703a 	and	r3,r18,r3
  140f60:	003f7f06 	br	140d60 <__addsf3+0x5c>
  140f64:	30003b1e 	bne	r6,zero,141054 <__addsf3+0x350>
  140f68:	81000044 	addi	r4,r16,1
  140f6c:	21c03fcc 	andi	r7,r4,255
  140f70:	01800044 	movi	r6,1
  140f74:	31c0260e 	bge	r6,r7,141010 <__addsf3+0x30c>
  140f78:	01803fc4 	movi	r6,255
  140f7c:	21802126 	beq	r4,r6,141004 <__addsf3+0x300>
  140f80:	28c7883a 	add	r3,r5,r3
  140f84:	1806d07a 	srli	r3,r3,1
  140f88:	2021883a 	mov	r16,r4
  140f8c:	003f7406 	br	140d60 <__addsf3+0x5c>
  140f90:	01003fc4 	movi	r4,255
  140f94:	813f921e 	bne	r16,r4,140de0 <__addsf3+0xdc>
  140f98:	003f7106 	br	140d60 <__addsf3+0x5c>
  140f9c:	80001026 	beq	r16,zero,140fe0 <__addsf3+0x2dc>
  140fa0:	01803fc4 	movi	r6,255
  140fa4:	21801326 	beq	r4,r6,140ff4 <__addsf3+0x2f0>
  140fa8:	0085c83a 	sub	r2,zero,r2
  140fac:	18c10034 	orhi	r3,r3,1024
  140fb0:	018006c4 	movi	r6,27
  140fb4:	3080390e 	bge	r6,r2,14109c <__addsf3+0x398>
  140fb8:	00c00044 	movi	r3,1
  140fbc:	28c7c83a 	sub	r3,r5,r3
  140fc0:	2021883a 	mov	r16,r4
  140fc4:	3823883a 	mov	r17,r7
  140fc8:	003fba06 	br	140eb4 <__addsf3+0x1b0>
  140fcc:	903fbe1e 	bne	r18,zero,140ec8 <__addsf3+0x1c4>
  140fd0:	0007883a 	mov	r3,zero
  140fd4:	0005883a 	mov	r2,zero
  140fd8:	0021883a 	mov	r16,zero
  140fdc:	003f8e06 	br	140e18 <__addsf3+0x114>
  140fe0:	18000426 	beq	r3,zero,140ff4 <__addsf3+0x2f0>
  140fe4:	0084303a 	nor	r2,zero,r2
  140fe8:	103ff426 	beq	r2,zero,140fbc <__addsf3+0x2b8>
  140fec:	01803fc4 	movi	r6,255
  140ff0:	21bfef1e 	bne	r4,r6,140fb0 <__addsf3+0x2ac>
  140ff4:	2807883a 	mov	r3,r5
  140ff8:	2021883a 	mov	r16,r4
  140ffc:	3823883a 	mov	r17,r7
  141000:	003f5706 	br	140d60 <__addsf3+0x5c>
  141004:	2021883a 	mov	r16,r4
  141008:	0007883a 	mov	r3,zero
  14100c:	003f8206 	br	140e18 <__addsf3+0x114>
  141010:	8000441e 	bne	r16,zero,141124 <__addsf3+0x420>
  141014:	18005926 	beq	r3,zero,14117c <__addsf3+0x478>
  141018:	283f5126 	beq	r5,zero,140d60 <__addsf3+0x5c>
  14101c:	1947883a 	add	r3,r3,r5
  141020:	1881002c 	andhi	r2,r3,1024
  141024:	103f4e26 	beq	r2,zero,140d60 <__addsf3+0x5c>
  141028:	00bf0034 	movhi	r2,64512
  14102c:	10bfffc4 	addi	r2,r2,-1
  141030:	1886703a 	and	r3,r3,r2
  141034:	3021883a 	mov	r16,r6
  141038:	003f4906 	br	140d60 <__addsf3+0x5c>
  14103c:	8000111e 	bne	r16,zero,141084 <__addsf3+0x380>
  141040:	1800221e 	bne	r3,zero,1410cc <__addsf3+0x3c8>
  141044:	28004326 	beq	r5,zero,141154 <__addsf3+0x450>
  141048:	2807883a 	mov	r3,r5
  14104c:	3823883a 	mov	r17,r7
  141050:	003f4306 	br	140d60 <__addsf3+0x5c>
  141054:	8000181e 	bne	r16,zero,1410b8 <__addsf3+0x3b4>
  141058:	18002f26 	beq	r3,zero,141118 <__addsf3+0x414>
  14105c:	018c303a 	nor	r6,zero,r6
  141060:	30000526 	beq	r6,zero,141078 <__addsf3+0x374>
  141064:	01c03fc4 	movi	r7,255
  141068:	21c02b26 	beq	r4,r7,141118 <__addsf3+0x414>
  14106c:	01c006c4 	movi	r7,27
  141070:	39803b0e 	bge	r7,r6,141160 <__addsf3+0x45c>
  141074:	00c00044 	movi	r3,1
  141078:	1947883a 	add	r3,r3,r5
  14107c:	2021883a 	mov	r16,r4
  141080:	003f7d06 	br	140e78 <__addsf3+0x174>
  141084:	1800181e 	bne	r3,zero,1410e8 <__addsf3+0x3e4>
  141088:	283f5f26 	beq	r5,zero,140e08 <__addsf3+0x104>
  14108c:	2807883a 	mov	r3,r5
  141090:	3823883a 	mov	r17,r7
  141094:	04003fc4 	movi	r16,255
  141098:	003f3106 	br	140d60 <__addsf3+0x5c>
  14109c:	01800804 	movi	r6,32
  1410a0:	308dc83a 	sub	r6,r6,r2
  1410a4:	198c983a 	sll	r6,r3,r6
  1410a8:	1884d83a 	srl	r2,r3,r2
  1410ac:	3006c03a 	cmpne	r3,r6,zero
  1410b0:	1886b03a 	or	r3,r3,r2
  1410b4:	003fc106 	br	140fbc <__addsf3+0x2b8>
  1410b8:	01c03fc4 	movi	r7,255
  1410bc:	21c01626 	beq	r4,r7,141118 <__addsf3+0x414>
  1410c0:	018dc83a 	sub	r6,zero,r6
  1410c4:	18c10034 	orhi	r3,r3,1024
  1410c8:	003fe806 	br	14106c <__addsf3+0x368>
  1410cc:	283f2426 	beq	r5,zero,140d60 <__addsf3+0x5c>
  1410d0:	1945c83a 	sub	r2,r3,r5
  1410d4:	1101002c 	andhi	r4,r2,1024
  1410d8:	20002d26 	beq	r4,zero,141190 <__addsf3+0x48c>
  1410dc:	28c7c83a 	sub	r3,r5,r3
  1410e0:	3823883a 	mov	r17,r7
  1410e4:	003f1e06 	br	140d60 <__addsf3+0x5c>
  1410e8:	28001826 	beq	r5,zero,14114c <__addsf3+0x448>
  1410ec:	1806d0fa 	srli	r3,r3,3
  1410f0:	1880102c 	andhi	r2,r3,64
  1410f4:	10000526 	beq	r2,zero,14110c <__addsf3+0x408>
  1410f8:	280ad0fa 	srli	r5,r5,3
  1410fc:	2880102c 	andhi	r2,r5,64
  141100:	1000021e 	bne	r2,zero,14110c <__addsf3+0x408>
  141104:	2807883a 	mov	r3,r5
  141108:	3823883a 	mov	r17,r7
  14110c:	180690fa 	slli	r3,r3,3
  141110:	04003fc4 	movi	r16,255
  141114:	003f1206 	br	140d60 <__addsf3+0x5c>
  141118:	2807883a 	mov	r3,r5
  14111c:	2021883a 	mov	r16,r4
  141120:	003f0f06 	br	140d60 <__addsf3+0x5c>
  141124:	18001726 	beq	r3,zero,141184 <__addsf3+0x480>
  141128:	28000826 	beq	r5,zero,14114c <__addsf3+0x448>
  14112c:	1806d0fa 	srli	r3,r3,3
  141130:	1880102c 	andhi	r2,r3,64
  141134:	103ff526 	beq	r2,zero,14110c <__addsf3+0x408>
  141138:	280ad0fa 	srli	r5,r5,3
  14113c:	2880102c 	andhi	r2,r5,64
  141140:	103ff21e 	bne	r2,zero,14110c <__addsf3+0x408>
  141144:	2807883a 	mov	r3,r5
  141148:	003ff006 	br	14110c <__addsf3+0x408>
  14114c:	04003fc4 	movi	r16,255
  141150:	003f0306 	br	140d60 <__addsf3+0x5c>
  141154:	8007883a 	mov	r3,r16
  141158:	0005883a 	mov	r2,zero
  14115c:	003f2e06 	br	140e18 <__addsf3+0x114>
  141160:	01c00804 	movi	r7,32
  141164:	398fc83a 	sub	r7,r7,r6
  141168:	19ce983a 	sll	r7,r3,r7
  14116c:	1986d83a 	srl	r3,r3,r6
  141170:	380cc03a 	cmpne	r6,r7,zero
  141174:	30c6b03a 	or	r3,r6,r3
  141178:	003fbf06 	br	141078 <__addsf3+0x374>
  14117c:	2807883a 	mov	r3,r5
  141180:	003ef706 	br	140d60 <__addsf3+0x5c>
  141184:	2807883a 	mov	r3,r5
  141188:	04003fc4 	movi	r16,255
  14118c:	003ef406 	br	140d60 <__addsf3+0x5c>
  141190:	10000226 	beq	r2,zero,14119c <__addsf3+0x498>
  141194:	1007883a 	mov	r3,r2
  141198:	003ef106 	br	140d60 <__addsf3+0x5c>
  14119c:	0007883a 	mov	r3,zero
  1411a0:	0005883a 	mov	r2,zero
  1411a4:	003f1c06 	br	140e18 <__addsf3+0x114>
  1411a8:	00800044 	movi	r2,1
  1411ac:	1887c83a 	sub	r3,r3,r2
  1411b0:	003f4006 	br	140eb4 <__addsf3+0x1b0>
  1411b4:	01400044 	movi	r5,1
  1411b8:	003f2e06 	br	140e74 <__addsf3+0x170>

001411bc <__divsf3>:
  1411bc:	defff504 	addi	sp,sp,-44
  1411c0:	dc400215 	stw	r17,8(sp)
  1411c4:	2022d5fa 	srli	r17,r4,23
  1411c8:	dd000515 	stw	r20,20(sp)
  1411cc:	2028d7fa 	srli	r20,r4,31
  1411d0:	df000915 	stw	fp,36(sp)
  1411d4:	dcc00415 	stw	r19,16(sp)
  1411d8:	dfc00a15 	stw	ra,40(sp)
  1411dc:	04c02034 	movhi	r19,128
  1411e0:	9cffffc4 	addi	r19,r19,-1
  1411e4:	ddc00815 	stw	r23,32(sp)
  1411e8:	dd800715 	stw	r22,28(sp)
  1411ec:	dd400615 	stw	r21,24(sp)
  1411f0:	dc800315 	stw	r18,12(sp)
  1411f4:	dc000115 	stw	r16,4(sp)
  1411f8:	8c403fcc 	andi	r17,r17,255
  1411fc:	9926703a 	and	r19,r19,r4
  141200:	a7003fcc 	andi	fp,r20,255
  141204:	88006626 	beq	r17,zero,1413a0 <__divsf3+0x1e4>
  141208:	00803fc4 	movi	r2,255
  14120c:	88803026 	beq	r17,r2,1412d0 <__divsf3+0x114>
  141210:	9cc02034 	orhi	r19,r19,128
  141214:	982690fa 	slli	r19,r19,3
  141218:	8c7fe044 	addi	r17,r17,-127
  14121c:	002d883a 	mov	r22,zero
  141220:	002f883a 	mov	r23,zero
  141224:	280cd5fa 	srli	r6,r5,23
  141228:	282ad7fa 	srli	r21,r5,31
  14122c:	04002034 	movhi	r16,128
  141230:	843fffc4 	addi	r16,r16,-1
  141234:	31803fcc 	andi	r6,r6,255
  141238:	8160703a 	and	r16,r16,r5
  14123c:	aa003fcc 	andi	r8,r21,255
  141240:	30002e26 	beq	r6,zero,1412fc <__divsf3+0x140>
  141244:	00803fc4 	movi	r2,255
  141248:	30805926 	beq	r6,r2,1413b0 <__divsf3+0x1f4>
  14124c:	84002034 	orhi	r16,r16,128
  141250:	802090fa 	slli	r16,r16,3
  141254:	31bfe044 	addi	r6,r6,-127
  141258:	0007883a 	mov	r3,zero
  14125c:	a548f03a 	xor	r4,r20,r21
  141260:	1d8ab03a 	or	r5,r3,r22
  141264:	008003c4 	movi	r2,15
  141268:	200f883a 	mov	r7,r4
  14126c:	22403fcc 	andi	r9,r4,255
  141270:	11407d36 	bltu	r2,r5,141468 <__divsf3+0x2ac>
  141274:	294b883a 	add	r5,r5,r5
  141278:	00800534 	movhi	r2,20
  14127c:	1084a404 	addi	r2,r2,4752
  141280:	294b883a 	add	r5,r5,r5
  141284:	288b883a 	add	r5,r5,r2
  141288:	28800017 	ldw	r2,0(r5)
  14128c:	1000683a 	jmp	r2
  141290:	00141468 	cmpgeui	zero,zero,20561
  141294:	00141340 	call	14134 <__alt_mem_onchip_memory2-0x12becc>
  141298:	00141430 	cmpltui	zero,zero,20560
  14129c:	00141314 	movui	zero,20556
  1412a0:	00141430 	cmpltui	zero,zero,20560
  1412a4:	0014141c 	xori	zero,zero,20560
  1412a8:	00141430 	cmpltui	zero,zero,20560
  1412ac:	00141314 	movui	zero,20556
  1412b0:	00141340 	call	14134 <__alt_mem_onchip_memory2-0x12becc>
  1412b4:	00141340 	call	14134 <__alt_mem_onchip_memory2-0x12becc>
  1412b8:	0014141c 	xori	zero,zero,20560
  1412bc:	00141314 	movui	zero,20556
  1412c0:	00141308 	cmpgei	zero,zero,20556
  1412c4:	00141308 	cmpgei	zero,zero,20556
  1412c8:	00141308 	cmpgei	zero,zero,20556
  1412cc:	0014143c 	xorhi	zero,zero,20560
  1412d0:	98004f1e 	bne	r19,zero,141410 <__divsf3+0x254>
  1412d4:	280cd5fa 	srli	r6,r5,23
  1412d8:	282ad7fa 	srli	r21,r5,31
  1412dc:	04002034 	movhi	r16,128
  1412e0:	843fffc4 	addi	r16,r16,-1
  1412e4:	31803fcc 	andi	r6,r6,255
  1412e8:	05800204 	movi	r22,8
  1412ec:	05c00084 	movi	r23,2
  1412f0:	8160703a 	and	r16,r16,r5
  1412f4:	aa003fcc 	andi	r8,r21,255
  1412f8:	303fd21e 	bne	r6,zero,141244 <__divsf3+0x88>
  1412fc:	80002f1e 	bne	r16,zero,1413bc <__divsf3+0x200>
  141300:	00c00044 	movi	r3,1
  141304:	003fd506 	br	14125c <__divsf3+0xa0>
  141308:	9821883a 	mov	r16,r19
  14130c:	e011883a 	mov	r8,fp
  141310:	b807883a 	mov	r3,r23
  141314:	00800084 	movi	r2,2
  141318:	18800826 	beq	r3,r2,14133c <__divsf3+0x180>
  14131c:	008000c4 	movi	r2,3
  141320:	1880a226 	beq	r3,r2,1415ac <__divsf3+0x3f0>
  141324:	00800044 	movi	r2,1
  141328:	1880881e 	bne	r3,r2,14154c <__divsf3+0x390>
  14132c:	400f883a 	mov	r7,r8
  141330:	000d883a 	mov	r6,zero
  141334:	0027883a 	mov	r19,zero
  141338:	00000406 	br	14134c <__divsf3+0x190>
  14133c:	4013883a 	mov	r9,r8
  141340:	49c0004c 	andi	r7,r9,1
  141344:	01bfffc4 	movi	r6,-1
  141348:	0027883a 	mov	r19,zero
  14134c:	31803fcc 	andi	r6,r6,255
  141350:	300c95fa 	slli	r6,r6,23
  141354:	39c03fcc 	andi	r7,r7,255
  141358:	380e97fa 	slli	r7,r7,31
  14135c:	00802034 	movhi	r2,128
  141360:	10bfffc4 	addi	r2,r2,-1
  141364:	9884703a 	and	r2,r19,r2
  141368:	1184b03a 	or	r2,r2,r6
  14136c:	11c4b03a 	or	r2,r2,r7
  141370:	dfc00a17 	ldw	ra,40(sp)
  141374:	df000917 	ldw	fp,36(sp)
  141378:	ddc00817 	ldw	r23,32(sp)
  14137c:	dd800717 	ldw	r22,28(sp)
  141380:	dd400617 	ldw	r21,24(sp)
  141384:	dd000517 	ldw	r20,20(sp)
  141388:	dcc00417 	ldw	r19,16(sp)
  14138c:	dc800317 	ldw	r18,12(sp)
  141390:	dc400217 	ldw	r17,8(sp)
  141394:	dc000117 	ldw	r16,4(sp)
  141398:	dec00b04 	addi	sp,sp,44
  14139c:	f800283a 	ret
  1413a0:	9800101e 	bne	r19,zero,1413e4 <__divsf3+0x228>
  1413a4:	05800104 	movi	r22,4
  1413a8:	05c00044 	movi	r23,1
  1413ac:	003f9d06 	br	141224 <__divsf3+0x68>
  1413b0:	8006c03a 	cmpne	r3,r16,zero
  1413b4:	18c00084 	addi	r3,r3,2
  1413b8:	003fa806 	br	14125c <__divsf3+0xa0>
  1413bc:	8009883a 	mov	r4,r16
  1413c0:	da000015 	stw	r8,0(sp)
  1413c4:	01421980 	call	142198 <__clzsi2>
  1413c8:	10fffec4 	addi	r3,r2,-5
  1413cc:	01bfe284 	movi	r6,-118
  1413d0:	80e0983a 	sll	r16,r16,r3
  1413d4:	308dc83a 	sub	r6,r6,r2
  1413d8:	0007883a 	mov	r3,zero
  1413dc:	da000017 	ldw	r8,0(sp)
  1413e0:	003f9e06 	br	14125c <__divsf3+0xa0>
  1413e4:	9809883a 	mov	r4,r19
  1413e8:	d9400015 	stw	r5,0(sp)
  1413ec:	01421980 	call	142198 <__clzsi2>
  1413f0:	10fffec4 	addi	r3,r2,-5
  1413f4:	047fe284 	movi	r17,-118
  1413f8:	98e6983a 	sll	r19,r19,r3
  1413fc:	88a3c83a 	sub	r17,r17,r2
  141400:	002d883a 	mov	r22,zero
  141404:	002f883a 	mov	r23,zero
  141408:	d9400017 	ldw	r5,0(sp)
  14140c:	003f8506 	br	141224 <__divsf3+0x68>
  141410:	05800304 	movi	r22,12
  141414:	05c000c4 	movi	r23,3
  141418:	003f8206 	br	141224 <__divsf3+0x68>
  14141c:	000f883a 	mov	r7,zero
  141420:	04c02034 	movhi	r19,128
  141424:	9cffffc4 	addi	r19,r19,-1
  141428:	01bfffc4 	movi	r6,-1
  14142c:	003fc706 	br	14134c <__divsf3+0x190>
  141430:	000d883a 	mov	r6,zero
  141434:	0027883a 	mov	r19,zero
  141438:	003fc406 	br	14134c <__divsf3+0x190>
  14143c:	9880102c 	andhi	r2,r19,64
  141440:	10002f26 	beq	r2,zero,141500 <__divsf3+0x344>
  141444:	8080102c 	andhi	r2,r16,64
  141448:	10002d1e 	bne	r2,zero,141500 <__divsf3+0x344>
  14144c:	84c01034 	orhi	r19,r16,64
  141450:	00802034 	movhi	r2,128
  141454:	10bfffc4 	addi	r2,r2,-1
  141458:	98a6703a 	and	r19,r19,r2
  14145c:	a80f883a 	mov	r7,r21
  141460:	01bfffc4 	movi	r6,-1
  141464:	003fb906 	br	14134c <__divsf3+0x190>
  141468:	9806917a 	slli	r3,r19,5
  14146c:	8020917a 	slli	r16,r16,5
  141470:	89a5c83a 	sub	r18,r17,r6
  141474:	1c002936 	bltu	r3,r16,14151c <__divsf3+0x360>
  141478:	1c07c83a 	sub	r3,r3,r16
  14147c:	01000684 	movi	r4,26
  141480:	00800044 	movi	r2,1
  141484:	180d883a 	mov	r6,r3
  141488:	1085883a 	add	r2,r2,r2
  14148c:	18c7883a 	add	r3,r3,r3
  141490:	30000116 	blt	r6,zero,141498 <__divsf3+0x2dc>
  141494:	1c000236 	bltu	r3,r16,1414a0 <__divsf3+0x2e4>
  141498:	1c07c83a 	sub	r3,r3,r16
  14149c:	10800054 	ori	r2,r2,1
  1414a0:	213fffc4 	addi	r4,r4,-1
  1414a4:	013ff716 	blt	zero,r4,141484 <__divsf3+0x2c8>
  1414a8:	1806c03a 	cmpne	r3,r3,zero
  1414ac:	18a0b03a 	or	r16,r3,r2
  1414b0:	91801fc4 	addi	r6,r18,127
  1414b4:	01801d0e 	bge	zero,r6,14152c <__divsf3+0x370>
  1414b8:	808001cc 	andi	r2,r16,7
  1414bc:	10000426 	beq	r2,zero,1414d0 <__divsf3+0x314>
  1414c0:	80c003cc 	andi	r3,r16,15
  1414c4:	00800104 	movi	r2,4
  1414c8:	18800126 	beq	r3,r2,1414d0 <__divsf3+0x314>
  1414cc:	80a1883a 	add	r16,r16,r2
  1414d0:	8082002c 	andhi	r2,r16,2048
  1414d4:	10000426 	beq	r2,zero,1414e8 <__divsf3+0x32c>
  1414d8:	00be0034 	movhi	r2,63488
  1414dc:	10bfffc4 	addi	r2,r2,-1
  1414e0:	80a0703a 	and	r16,r16,r2
  1414e4:	91802004 	addi	r6,r18,128
  1414e8:	00803f84 	movi	r2,254
  1414ec:	11bf9416 	blt	r2,r6,141340 <__divsf3+0x184>
  1414f0:	802091ba 	slli	r16,r16,6
  1414f4:	49c0004c 	andi	r7,r9,1
  1414f8:	8026d27a 	srli	r19,r16,9
  1414fc:	003f9306 	br	14134c <__divsf3+0x190>
  141500:	9cc01034 	orhi	r19,r19,64
  141504:	00802034 	movhi	r2,128
  141508:	10bfffc4 	addi	r2,r2,-1
  14150c:	98a6703a 	and	r19,r19,r2
  141510:	a00f883a 	mov	r7,r20
  141514:	01bfffc4 	movi	r6,-1
  141518:	003f8c06 	br	14134c <__divsf3+0x190>
  14151c:	94bfffc4 	addi	r18,r18,-1
  141520:	010006c4 	movi	r4,27
  141524:	0005883a 	mov	r2,zero
  141528:	003fd606 	br	141484 <__divsf3+0x2c8>
  14152c:	00bfe084 	movi	r2,-126
  141530:	1485c83a 	sub	r2,r2,r18
  141534:	00c006c4 	movi	r3,27
  141538:	1880060e 	bge	r3,r2,141554 <__divsf3+0x398>
  14153c:	49c0004c 	andi	r7,r9,1
  141540:	000d883a 	mov	r6,zero
  141544:	0027883a 	mov	r19,zero
  141548:	003f8006 	br	14134c <__divsf3+0x190>
  14154c:	4013883a 	mov	r9,r8
  141550:	003fd706 	br	1414b0 <__divsf3+0x2f4>
  141554:	90c02784 	addi	r3,r18,158
  141558:	80c6983a 	sll	r3,r16,r3
  14155c:	8084d83a 	srl	r2,r16,r2
  141560:	1806c03a 	cmpne	r3,r3,zero
  141564:	1884b03a 	or	r2,r3,r2
  141568:	10c001cc 	andi	r3,r2,7
  14156c:	18000426 	beq	r3,zero,141580 <__divsf3+0x3c4>
  141570:	110003cc 	andi	r4,r2,15
  141574:	00c00104 	movi	r3,4
  141578:	20c00126 	beq	r4,r3,141580 <__divsf3+0x3c4>
  14157c:	10c5883a 	add	r2,r2,r3
  141580:	10c1002c 	andhi	r3,r2,1024
  141584:	18000426 	beq	r3,zero,141598 <__divsf3+0x3dc>
  141588:	49c0004c 	andi	r7,r9,1
  14158c:	01800044 	movi	r6,1
  141590:	0027883a 	mov	r19,zero
  141594:	003f6d06 	br	14134c <__divsf3+0x190>
  141598:	100491ba 	slli	r2,r2,6
  14159c:	49c0004c 	andi	r7,r9,1
  1415a0:	000d883a 	mov	r6,zero
  1415a4:	1026d27a 	srli	r19,r2,9
  1415a8:	003f6806 	br	14134c <__divsf3+0x190>
  1415ac:	84c01034 	orhi	r19,r16,64
  1415b0:	00802034 	movhi	r2,128
  1415b4:	10bfffc4 	addi	r2,r2,-1
  1415b8:	98a6703a 	and	r19,r19,r2
  1415bc:	400f883a 	mov	r7,r8
  1415c0:	01bfffc4 	movi	r6,-1
  1415c4:	003f6106 	br	14134c <__divsf3+0x190>

001415c8 <__mulsf3>:
  1415c8:	defff404 	addi	sp,sp,-48
  1415cc:	dc800415 	stw	r18,16(sp)
  1415d0:	2024d5fa 	srli	r18,r4,23
  1415d4:	dc400315 	stw	r17,12(sp)
  1415d8:	2022d7fa 	srli	r17,r4,31
  1415dc:	dd800815 	stw	r22,32(sp)
  1415e0:	dd400715 	stw	r21,28(sp)
  1415e4:	dc000215 	stw	r16,8(sp)
  1415e8:	dfc00b15 	stw	ra,44(sp)
  1415ec:	04002034 	movhi	r16,128
  1415f0:	843fffc4 	addi	r16,r16,-1
  1415f4:	df000a15 	stw	fp,40(sp)
  1415f8:	ddc00915 	stw	r23,36(sp)
  1415fc:	dd000615 	stw	r20,24(sp)
  141600:	dcc00515 	stw	r19,20(sp)
  141604:	94803fcc 	andi	r18,r18,255
  141608:	8120703a 	and	r16,r16,r4
  14160c:	882d883a 	mov	r22,r17
  141610:	8d403fcc 	andi	r21,r17,255
  141614:	90005b26 	beq	r18,zero,141784 <__mulsf3+0x1bc>
  141618:	00803fc4 	movi	r2,255
  14161c:	90802c26 	beq	r18,r2,1416d0 <__mulsf3+0x108>
  141620:	84002034 	orhi	r16,r16,128
  141624:	802090fa 	slli	r16,r16,3
  141628:	94bfe044 	addi	r18,r18,-127
  14162c:	0039883a 	mov	fp,zero
  141630:	002f883a 	mov	r23,zero
  141634:	2804d5fa 	srli	r2,r5,23
  141638:	2828d7fa 	srli	r20,r5,31
  14163c:	04c02034 	movhi	r19,128
  141640:	9cffffc4 	addi	r19,r19,-1
  141644:	10803fcc 	andi	r2,r2,255
  141648:	9966703a 	and	r19,r19,r5
  14164c:	a1c03fcc 	andi	r7,r20,255
  141650:	10002a26 	beq	r2,zero,1416fc <__mulsf3+0x134>
  141654:	00c03fc4 	movi	r3,255
  141658:	10c04e26 	beq	r2,r3,141794 <__mulsf3+0x1cc>
  14165c:	9cc02034 	orhi	r19,r19,128
  141660:	982690fa 	slli	r19,r19,3
  141664:	10bfe044 	addi	r2,r2,-127
  141668:	0009883a 	mov	r4,zero
  14166c:	2706b03a 	or	r3,r4,fp
  141670:	18c7883a 	add	r3,r3,r3
  141674:	18c7883a 	add	r3,r3,r3
  141678:	01400534 	movhi	r5,20
  14167c:	2945a404 	addi	r5,r5,5776
  141680:	1947883a 	add	r3,r3,r5
  141684:	18c00017 	ldw	r3,0(r3)
  141688:	a462f03a 	xor	r17,r20,r17
  14168c:	1800683a 	jmp	r3
  141690:	00141840 	call	14184 <__alt_mem_onchip_memory2-0x12be7c>
  141694:	00141834 	movhi	zero,20576
  141698:	00141834 	movhi	zero,20576
  14169c:	00141824 	muli	zero,zero,20576
  1416a0:	0014170c 	andi	zero,zero,20572
  1416a4:	0014170c 	andi	zero,zero,20572
  1416a8:	00141810 	cmplti	zero,zero,20576
  1416ac:	00141824 	muli	zero,zero,20576
  1416b0:	0014170c 	andi	zero,zero,20572
  1416b4:	00141810 	cmplti	zero,zero,20576
  1416b8:	0014170c 	andi	zero,zero,20572
  1416bc:	00141824 	muli	zero,zero,20576
  1416c0:	00141708 	cmpgei	zero,zero,20572
  1416c4:	00141708 	cmpgei	zero,zero,20572
  1416c8:	00141708 	cmpgei	zero,zero,20572
  1416cc:	00141924 	muli	zero,zero,20580
  1416d0:	8000371e 	bne	r16,zero,1417b0 <__mulsf3+0x1e8>
  1416d4:	2804d5fa 	srli	r2,r5,23
  1416d8:	2828d7fa 	srli	r20,r5,31
  1416dc:	04c02034 	movhi	r19,128
  1416e0:	9cffffc4 	addi	r19,r19,-1
  1416e4:	10803fcc 	andi	r2,r2,255
  1416e8:	07000204 	movi	fp,8
  1416ec:	05c00084 	movi	r23,2
  1416f0:	9966703a 	and	r19,r19,r5
  1416f4:	a1c03fcc 	andi	r7,r20,255
  1416f8:	103fd61e 	bne	r2,zero,141654 <__mulsf3+0x8c>
  1416fc:	98003a1e 	bne	r19,zero,1417e8 <__mulsf3+0x220>
  141700:	01000044 	movi	r4,1
  141704:	003fd906 	br	14166c <__mulsf3+0xa4>
  141708:	a823883a 	mov	r17,r21
  14170c:	00800084 	movi	r2,2
  141710:	b8802326 	beq	r23,r2,1417a0 <__mulsf3+0x1d8>
  141714:	008000c4 	movi	r2,3
  141718:	b880af26 	beq	r23,r2,1419d8 <__mulsf3+0x410>
  14171c:	00800044 	movi	r2,1
  141720:	b8806a1e 	bne	r23,r2,1418cc <__mulsf3+0x304>
  141724:	882d883a 	mov	r22,r17
  141728:	0007883a 	mov	r3,zero
  14172c:	0021883a 	mov	r16,zero
  141730:	18c03fcc 	andi	r3,r3,255
  141734:	180695fa 	slli	r3,r3,23
  141738:	b5803fcc 	andi	r22,r22,255
  14173c:	b02c97fa 	slli	r22,r22,31
  141740:	00802034 	movhi	r2,128
  141744:	10bfffc4 	addi	r2,r2,-1
  141748:	80a0703a 	and	r16,r16,r2
  14174c:	80c4b03a 	or	r2,r16,r3
  141750:	1584b03a 	or	r2,r2,r22
  141754:	dfc00b17 	ldw	ra,44(sp)
  141758:	df000a17 	ldw	fp,40(sp)
  14175c:	ddc00917 	ldw	r23,36(sp)
  141760:	dd800817 	ldw	r22,32(sp)
  141764:	dd400717 	ldw	r21,28(sp)
  141768:	dd000617 	ldw	r20,24(sp)
  14176c:	dcc00517 	ldw	r19,20(sp)
  141770:	dc800417 	ldw	r18,16(sp)
  141774:	dc400317 	ldw	r17,12(sp)
  141778:	dc000217 	ldw	r16,8(sp)
  14177c:	dec00c04 	addi	sp,sp,48
  141780:	f800283a 	ret
  141784:	80000d1e 	bne	r16,zero,1417bc <__mulsf3+0x1f4>
  141788:	07000104 	movi	fp,4
  14178c:	05c00044 	movi	r23,1
  141790:	003fa806 	br	141634 <__mulsf3+0x6c>
  141794:	9808c03a 	cmpne	r4,r19,zero
  141798:	21000084 	addi	r4,r4,2
  14179c:	003fb306 	br	14166c <__mulsf3+0xa4>
  1417a0:	882d883a 	mov	r22,r17
  1417a4:	00ffffc4 	movi	r3,-1
  1417a8:	0021883a 	mov	r16,zero
  1417ac:	003fe006 	br	141730 <__mulsf3+0x168>
  1417b0:	07000304 	movi	fp,12
  1417b4:	05c000c4 	movi	r23,3
  1417b8:	003f9e06 	br	141634 <__mulsf3+0x6c>
  1417bc:	8009883a 	mov	r4,r16
  1417c0:	d9400115 	stw	r5,4(sp)
  1417c4:	01421980 	call	142198 <__clzsi2>
  1417c8:	10fffec4 	addi	r3,r2,-5
  1417cc:	04bfe284 	movi	r18,-118
  1417d0:	80e0983a 	sll	r16,r16,r3
  1417d4:	90a5c83a 	sub	r18,r18,r2
  1417d8:	0039883a 	mov	fp,zero
  1417dc:	002f883a 	mov	r23,zero
  1417e0:	d9400117 	ldw	r5,4(sp)
  1417e4:	003f9306 	br	141634 <__mulsf3+0x6c>
  1417e8:	9809883a 	mov	r4,r19
  1417ec:	d9c00115 	stw	r7,4(sp)
  1417f0:	01421980 	call	142198 <__clzsi2>
  1417f4:	10fffec4 	addi	r3,r2,-5
  1417f8:	98e6983a 	sll	r19,r19,r3
  1417fc:	00ffe284 	movi	r3,-118
  141800:	1885c83a 	sub	r2,r3,r2
  141804:	0009883a 	mov	r4,zero
  141808:	d9c00117 	ldw	r7,4(sp)
  14180c:	003f9706 	br	14166c <__mulsf3+0xa4>
  141810:	002d883a 	mov	r22,zero
  141814:	04002034 	movhi	r16,128
  141818:	843fffc4 	addi	r16,r16,-1
  14181c:	00ffffc4 	movi	r3,-1
  141820:	003fc306 	br	141730 <__mulsf3+0x168>
  141824:	9821883a 	mov	r16,r19
  141828:	3823883a 	mov	r17,r7
  14182c:	202f883a 	mov	r23,r4
  141830:	003fb606 	br	14170c <__mulsf3+0x144>
  141834:	9821883a 	mov	r16,r19
  141838:	202f883a 	mov	r23,r4
  14183c:	003fb306 	br	14170c <__mulsf3+0x144>
  141840:	8006d43a 	srli	r3,r16,16
  141844:	980cd43a 	srli	r6,r19,16
  141848:	843fffcc 	andi	r16,r16,65535
  14184c:	9cffffcc 	andi	r19,r19,65535
  141850:	9c09383a 	mul	r4,r19,r16
  141854:	3421383a 	mul	r16,r6,r16
  141858:	98e7383a 	mul	r19,r19,r3
  14185c:	200ad43a 	srli	r5,r4,16
  141860:	9085883a 	add	r2,r18,r2
  141864:	d8800015 	stw	r2,0(sp)
  141868:	9c05883a 	add	r2,r19,r16
  14186c:	1145883a 	add	r2,r2,r5
  141870:	30cd383a 	mul	r6,r6,r3
  141874:	14c0022e 	bgeu	r2,r19,141880 <__mulsf3+0x2b8>
  141878:	00c00074 	movhi	r3,1
  14187c:	30cd883a 	add	r6,r6,r3
  141880:	1006943a 	slli	r3,r2,16
  141884:	213fffcc 	andi	r4,r4,65535
  141888:	1004d43a 	srli	r2,r2,16
  14188c:	1907883a 	add	r3,r3,r4
  141890:	182091ba 	slli	r16,r3,6
  141894:	308d883a 	add	r6,r6,r2
  141898:	1806d6ba 	srli	r3,r3,26
  14189c:	300c91ba 	slli	r6,r6,6
  1418a0:	8020c03a 	cmpne	r16,r16,zero
  1418a4:	80e0b03a 	or	r16,r16,r3
  1418a8:	81a0b03a 	or	r16,r16,r6
  1418ac:	8082002c 	andhi	r2,r16,2048
  1418b0:	10000626 	beq	r2,zero,1418cc <__mulsf3+0x304>
  1418b4:	d8c00017 	ldw	r3,0(sp)
  1418b8:	8004d07a 	srli	r2,r16,1
  1418bc:	8400004c 	andi	r16,r16,1
  1418c0:	18c00044 	addi	r3,r3,1
  1418c4:	d8c00015 	stw	r3,0(sp)
  1418c8:	80a0b03a 	or	r16,r16,r2
  1418cc:	d8800017 	ldw	r2,0(sp)
  1418d0:	10c01fc4 	addi	r3,r2,127
  1418d4:	00c0240e 	bge	zero,r3,141968 <__mulsf3+0x3a0>
  1418d8:	808001cc 	andi	r2,r16,7
  1418dc:	10000426 	beq	r2,zero,1418f0 <__mulsf3+0x328>
  1418e0:	810003cc 	andi	r4,r16,15
  1418e4:	00800104 	movi	r2,4
  1418e8:	20800126 	beq	r4,r2,1418f0 <__mulsf3+0x328>
  1418ec:	80a1883a 	add	r16,r16,r2
  1418f0:	8082002c 	andhi	r2,r16,2048
  1418f4:	10000526 	beq	r2,zero,14190c <__mulsf3+0x344>
  1418f8:	00be0034 	movhi	r2,63488
  1418fc:	10bfffc4 	addi	r2,r2,-1
  141900:	80a0703a 	and	r16,r16,r2
  141904:	d8800017 	ldw	r2,0(sp)
  141908:	10c02004 	addi	r3,r2,128
  14190c:	00803f84 	movi	r2,254
  141910:	10ffa316 	blt	r2,r3,1417a0 <__mulsf3+0x1d8>
  141914:	802091ba 	slli	r16,r16,6
  141918:	882d883a 	mov	r22,r17
  14191c:	8020d27a 	srli	r16,r16,9
  141920:	003f8306 	br	141730 <__mulsf3+0x168>
  141924:	8080102c 	andhi	r2,r16,64
  141928:	10000926 	beq	r2,zero,141950 <__mulsf3+0x388>
  14192c:	9880102c 	andhi	r2,r19,64
  141930:	1000071e 	bne	r2,zero,141950 <__mulsf3+0x388>
  141934:	9c001034 	orhi	r16,r19,64
  141938:	00802034 	movhi	r2,128
  14193c:	10bfffc4 	addi	r2,r2,-1
  141940:	80a0703a 	and	r16,r16,r2
  141944:	a02d883a 	mov	r22,r20
  141948:	00ffffc4 	movi	r3,-1
  14194c:	003f7806 	br	141730 <__mulsf3+0x168>
  141950:	84001034 	orhi	r16,r16,64
  141954:	00802034 	movhi	r2,128
  141958:	10bfffc4 	addi	r2,r2,-1
  14195c:	80a0703a 	and	r16,r16,r2
  141960:	00ffffc4 	movi	r3,-1
  141964:	003f7206 	br	141730 <__mulsf3+0x168>
  141968:	d8c00017 	ldw	r3,0(sp)
  14196c:	00bfe084 	movi	r2,-126
  141970:	10c5c83a 	sub	r2,r2,r3
  141974:	00c006c4 	movi	r3,27
  141978:	18bf6a16 	blt	r3,r2,141724 <__mulsf3+0x15c>
  14197c:	d8c00017 	ldw	r3,0(sp)
  141980:	1d402784 	addi	r21,r3,158
  141984:	856a983a 	sll	r21,r16,r21
  141988:	80a0d83a 	srl	r16,r16,r2
  14198c:	a804c03a 	cmpne	r2,r21,zero
  141990:	1404b03a 	or	r2,r2,r16
  141994:	10c001cc 	andi	r3,r2,7
  141998:	18000426 	beq	r3,zero,1419ac <__mulsf3+0x3e4>
  14199c:	110003cc 	andi	r4,r2,15
  1419a0:	00c00104 	movi	r3,4
  1419a4:	20c00126 	beq	r4,r3,1419ac <__mulsf3+0x3e4>
  1419a8:	10c5883a 	add	r2,r2,r3
  1419ac:	10c1002c 	andhi	r3,r2,1024
  1419b0:	18000426 	beq	r3,zero,1419c4 <__mulsf3+0x3fc>
  1419b4:	882d883a 	mov	r22,r17
  1419b8:	00c00044 	movi	r3,1
  1419bc:	0021883a 	mov	r16,zero
  1419c0:	003f5b06 	br	141730 <__mulsf3+0x168>
  1419c4:	100491ba 	slli	r2,r2,6
  1419c8:	882d883a 	mov	r22,r17
  1419cc:	0007883a 	mov	r3,zero
  1419d0:	1020d27a 	srli	r16,r2,9
  1419d4:	003f5606 	br	141730 <__mulsf3+0x168>
  1419d8:	84001034 	orhi	r16,r16,64
  1419dc:	00802034 	movhi	r2,128
  1419e0:	10bfffc4 	addi	r2,r2,-1
  1419e4:	80a0703a 	and	r16,r16,r2
  1419e8:	882d883a 	mov	r22,r17
  1419ec:	00ffffc4 	movi	r3,-1
  1419f0:	003f4f06 	br	141730 <__mulsf3+0x168>

001419f4 <__subsf3>:
  1419f4:	defffc04 	addi	sp,sp,-16
  1419f8:	280cd5fa 	srli	r6,r5,23
  1419fc:	dc400115 	stw	r17,4(sp)
  141a00:	dc000015 	stw	r16,0(sp)
  141a04:	2022d7fa 	srli	r17,r4,31
  141a08:	2020d5fa 	srli	r16,r4,23
  141a0c:	00802034 	movhi	r2,128
  141a10:	10bfffc4 	addi	r2,r2,-1
  141a14:	1106703a 	and	r3,r2,r4
  141a18:	dfc00315 	stw	ra,12(sp)
  141a1c:	1144703a 	and	r2,r2,r5
  141a20:	dc800215 	stw	r18,8(sp)
  141a24:	31803fcc 	andi	r6,r6,255
  141a28:	01003fc4 	movi	r4,255
  141a2c:	880f883a 	mov	r7,r17
  141a30:	84003fcc 	andi	r16,r16,255
  141a34:	8c403fcc 	andi	r17,r17,255
  141a38:	180690fa 	slli	r3,r3,3
  141a3c:	280ad7fa 	srli	r5,r5,31
  141a40:	100490fa 	slli	r2,r2,3
  141a44:	31002326 	beq	r6,r4,141ad4 <__subsf3+0xe0>
  141a48:	2940005c 	xori	r5,r5,1
  141a4c:	8189c83a 	sub	r4,r16,r6
  141a50:	89402426 	beq	r17,r5,141ae4 <__subsf3+0xf0>
  141a54:	0100750e 	bge	zero,r4,141c2c <__subsf3+0x238>
  141a58:	30003c1e 	bne	r6,zero,141b4c <__subsf3+0x158>
  141a5c:	1000681e 	bne	r2,zero,141c00 <__subsf3+0x20c>
  141a60:	188001cc 	andi	r2,r3,7
  141a64:	10000426 	beq	r2,zero,141a78 <__subsf3+0x84>
  141a68:	190003cc 	andi	r4,r3,15
  141a6c:	00800104 	movi	r2,4
  141a70:	20800126 	beq	r4,r2,141a78 <__subsf3+0x84>
  141a74:	18c00104 	addi	r3,r3,4
  141a78:	1881002c 	andhi	r2,r3,1024
  141a7c:	89c0004c 	andi	r7,r17,1
  141a80:	10005626 	beq	r2,zero,141bdc <__subsf3+0x1e8>
  141a84:	84000044 	addi	r16,r16,1
  141a88:	00803fc4 	movi	r2,255
  141a8c:	80807226 	beq	r16,r2,141c58 <__subsf3+0x264>
  141a90:	180691ba 	slli	r3,r3,6
  141a94:	1806d27a 	srli	r3,r3,9
  141a98:	84003fcc 	andi	r16,r16,255
  141a9c:	802095fa 	slli	r16,r16,23
  141aa0:	39c03fcc 	andi	r7,r7,255
  141aa4:	380e97fa 	slli	r7,r7,31
  141aa8:	00802034 	movhi	r2,128
  141aac:	10bfffc4 	addi	r2,r2,-1
  141ab0:	1884703a 	and	r2,r3,r2
  141ab4:	1404b03a 	or	r2,r2,r16
  141ab8:	11c4b03a 	or	r2,r2,r7
  141abc:	dfc00317 	ldw	ra,12(sp)
  141ac0:	dc800217 	ldw	r18,8(sp)
  141ac4:	dc400117 	ldw	r17,4(sp)
  141ac8:	dc000017 	ldw	r16,0(sp)
  141acc:	dec00404 	addi	sp,sp,16
  141ad0:	f800283a 	ret
  141ad4:	103fdc26 	beq	r2,zero,141a48 <__subsf3+0x54>
  141ad8:	29403fcc 	andi	r5,r5,255
  141adc:	8189c83a 	sub	r4,r16,r6
  141ae0:	897fdc1e 	bne	r17,r5,141a54 <__subsf3+0x60>
  141ae4:	0100630e 	bge	zero,r4,141c74 <__subsf3+0x280>
  141ae8:	30004a26 	beq	r6,zero,141c14 <__subsf3+0x220>
  141aec:	01403fc4 	movi	r5,255
  141af0:	817fdb26 	beq	r16,r5,141a60 <__subsf3+0x6c>
  141af4:	10810034 	orhi	r2,r2,1024
  141af8:	014006c4 	movi	r5,27
  141afc:	2900ed16 	blt	r5,r4,141eb4 <__subsf3+0x4c0>
  141b00:	01400804 	movi	r5,32
  141b04:	290bc83a 	sub	r5,r5,r4
  141b08:	114a983a 	sll	r5,r2,r5
  141b0c:	1108d83a 	srl	r4,r2,r4
  141b10:	2804c03a 	cmpne	r2,r5,zero
  141b14:	1104b03a 	or	r2,r2,r4
  141b18:	1887883a 	add	r3,r3,r2
  141b1c:	1881002c 	andhi	r2,r3,1024
  141b20:	103fcf26 	beq	r2,zero,141a60 <__subsf3+0x6c>
  141b24:	84000044 	addi	r16,r16,1
  141b28:	00803fc4 	movi	r2,255
  141b2c:	80807726 	beq	r16,r2,141d0c <__subsf3+0x318>
  141b30:	00bf0034 	movhi	r2,64512
  141b34:	10bfffc4 	addi	r2,r2,-1
  141b38:	1884703a 	and	r2,r3,r2
  141b3c:	1004d07a 	srli	r2,r2,1
  141b40:	18c0004c 	andi	r3,r3,1
  141b44:	10c6b03a 	or	r3,r2,r3
  141b48:	003fc506 	br	141a60 <__subsf3+0x6c>
  141b4c:	01403fc4 	movi	r5,255
  141b50:	817fc326 	beq	r16,r5,141a60 <__subsf3+0x6c>
  141b54:	10810034 	orhi	r2,r2,1024
  141b58:	014006c4 	movi	r5,27
  141b5c:	2900d316 	blt	r5,r4,141eac <__subsf3+0x4b8>
  141b60:	01400804 	movi	r5,32
  141b64:	290bc83a 	sub	r5,r5,r4
  141b68:	114a983a 	sll	r5,r2,r5
  141b6c:	1108d83a 	srl	r4,r2,r4
  141b70:	2804c03a 	cmpne	r2,r5,zero
  141b74:	1104b03a 	or	r2,r2,r4
  141b78:	1887c83a 	sub	r3,r3,r2
  141b7c:	1881002c 	andhi	r2,r3,1024
  141b80:	103fb726 	beq	r2,zero,141a60 <__subsf3+0x6c>
  141b84:	04810034 	movhi	r18,1024
  141b88:	94bfffc4 	addi	r18,r18,-1
  141b8c:	1ca4703a 	and	r18,r3,r18
  141b90:	9009883a 	mov	r4,r18
  141b94:	01421980 	call	142198 <__clzsi2>
  141b98:	10bffec4 	addi	r2,r2,-5
  141b9c:	90a4983a 	sll	r18,r18,r2
  141ba0:	14002f16 	blt	r2,r16,141c60 <__subsf3+0x26c>
  141ba4:	1421c83a 	sub	r16,r2,r16
  141ba8:	00c007c4 	movi	r3,31
  141bac:	1c07c83a 	sub	r3,r3,r16
  141bb0:	90c6983a 	sll	r3,r18,r3
  141bb4:	84000044 	addi	r16,r16,1
  141bb8:	9424d83a 	srl	r18,r18,r16
  141bbc:	1806c03a 	cmpne	r3,r3,zero
  141bc0:	0021883a 	mov	r16,zero
  141bc4:	1c86b03a 	or	r3,r3,r18
  141bc8:	003fa506 	br	141a60 <__subsf3+0x6c>
  141bcc:	000f883a 	mov	r7,zero
  141bd0:	00c10034 	movhi	r3,1024
  141bd4:	18fffe04 	addi	r3,r3,-8
  141bd8:	04003fc4 	movi	r16,255
  141bdc:	00803fc4 	movi	r2,255
  141be0:	1806d0fa 	srli	r3,r3,3
  141be4:	8080021e 	bne	r16,r2,141bf0 <__subsf3+0x1fc>
  141be8:	18001b26 	beq	r3,zero,141c58 <__subsf3+0x264>
  141bec:	18c01034 	orhi	r3,r3,64
  141bf0:	00802034 	movhi	r2,128
  141bf4:	10bfffc4 	addi	r2,r2,-1
  141bf8:	1886703a 	and	r3,r3,r2
  141bfc:	003fa606 	br	141a98 <__subsf3+0xa4>
  141c00:	213fffc4 	addi	r4,r4,-1
  141c04:	203fdc26 	beq	r4,zero,141b78 <__subsf3+0x184>
  141c08:	01403fc4 	movi	r5,255
  141c0c:	817fd21e 	bne	r16,r5,141b58 <__subsf3+0x164>
  141c10:	003f9306 	br	141a60 <__subsf3+0x6c>
  141c14:	103f9226 	beq	r2,zero,141a60 <__subsf3+0x6c>
  141c18:	213fffc4 	addi	r4,r4,-1
  141c1c:	203fbe26 	beq	r4,zero,141b18 <__subsf3+0x124>
  141c20:	01403fc4 	movi	r5,255
  141c24:	817fb41e 	bne	r16,r5,141af8 <__subsf3+0x104>
  141c28:	003f8d06 	br	141a60 <__subsf3+0x6c>
  141c2c:	20001c1e 	bne	r4,zero,141ca0 <__subsf3+0x2ac>
  141c30:	81000044 	addi	r4,r16,1
  141c34:	21003fcc 	andi	r4,r4,255
  141c38:	01800044 	movi	r6,1
  141c3c:	3100400e 	bge	r6,r4,141d40 <__subsf3+0x34c>
  141c40:	18a5c83a 	sub	r18,r3,r2
  141c44:	9101002c 	andhi	r4,r18,1024
  141c48:	20002126 	beq	r4,zero,141cd0 <__subsf3+0x2dc>
  141c4c:	10e5c83a 	sub	r18,r2,r3
  141c50:	2823883a 	mov	r17,r5
  141c54:	003fce06 	br	141b90 <__subsf3+0x19c>
  141c58:	0007883a 	mov	r3,zero
  141c5c:	003f8e06 	br	141a98 <__subsf3+0xa4>
  141c60:	00ff0034 	movhi	r3,64512
  141c64:	18ffffc4 	addi	r3,r3,-1
  141c68:	80a1c83a 	sub	r16,r16,r2
  141c6c:	90c6703a 	and	r3,r18,r3
  141c70:	003f7b06 	br	141a60 <__subsf3+0x6c>
  141c74:	2000381e 	bne	r4,zero,141d58 <__subsf3+0x364>
  141c78:	81000044 	addi	r4,r16,1
  141c7c:	21803fcc 	andi	r6,r4,255
  141c80:	01400044 	movi	r5,1
  141c84:	2980230e 	bge	r5,r6,141d14 <__subsf3+0x320>
  141c88:	01403fc4 	movi	r5,255
  141c8c:	21401e26 	beq	r4,r5,141d08 <__subsf3+0x314>
  141c90:	10c7883a 	add	r3,r2,r3
  141c94:	1806d07a 	srli	r3,r3,1
  141c98:	2021883a 	mov	r16,r4
  141c9c:	003f7006 	br	141a60 <__subsf3+0x6c>
  141ca0:	80001026 	beq	r16,zero,141ce4 <__subsf3+0x2f0>
  141ca4:	01c03fc4 	movi	r7,255
  141ca8:	31c01326 	beq	r6,r7,141cf8 <__subsf3+0x304>
  141cac:	0109c83a 	sub	r4,zero,r4
  141cb0:	18c10034 	orhi	r3,r3,1024
  141cb4:	01c006c4 	movi	r7,27
  141cb8:	3900390e 	bge	r7,r4,141da0 <__subsf3+0x3ac>
  141cbc:	00c00044 	movi	r3,1
  141cc0:	10c7c83a 	sub	r3,r2,r3
  141cc4:	3021883a 	mov	r16,r6
  141cc8:	2823883a 	mov	r17,r5
  141ccc:	003fab06 	br	141b7c <__subsf3+0x188>
  141cd0:	903faf1e 	bne	r18,zero,141b90 <__subsf3+0x19c>
  141cd4:	0007883a 	mov	r3,zero
  141cd8:	000f883a 	mov	r7,zero
  141cdc:	0021883a 	mov	r16,zero
  141ce0:	003fbe06 	br	141bdc <__subsf3+0x1e8>
  141ce4:	18000426 	beq	r3,zero,141cf8 <__subsf3+0x304>
  141ce8:	0108303a 	nor	r4,zero,r4
  141cec:	203ff426 	beq	r4,zero,141cc0 <__subsf3+0x2cc>
  141cf0:	01c03fc4 	movi	r7,255
  141cf4:	31ffef1e 	bne	r6,r7,141cb4 <__subsf3+0x2c0>
  141cf8:	1007883a 	mov	r3,r2
  141cfc:	3021883a 	mov	r16,r6
  141d00:	2823883a 	mov	r17,r5
  141d04:	003f5606 	br	141a60 <__subsf3+0x6c>
  141d08:	2021883a 	mov	r16,r4
  141d0c:	0007883a 	mov	r3,zero
  141d10:	003fb206 	br	141bdc <__subsf3+0x1e8>
  141d14:	8000441e 	bne	r16,zero,141e28 <__subsf3+0x434>
  141d18:	18005926 	beq	r3,zero,141e80 <__subsf3+0x48c>
  141d1c:	103f5026 	beq	r2,zero,141a60 <__subsf3+0x6c>
  141d20:	1887883a 	add	r3,r3,r2
  141d24:	1881002c 	andhi	r2,r3,1024
  141d28:	103f4d26 	beq	r2,zero,141a60 <__subsf3+0x6c>
  141d2c:	00bf0034 	movhi	r2,64512
  141d30:	10bfffc4 	addi	r2,r2,-1
  141d34:	1886703a 	and	r3,r3,r2
  141d38:	2821883a 	mov	r16,r5
  141d3c:	003f4806 	br	141a60 <__subsf3+0x6c>
  141d40:	8000111e 	bne	r16,zero,141d88 <__subsf3+0x394>
  141d44:	1800221e 	bne	r3,zero,141dd0 <__subsf3+0x3dc>
  141d48:	10004326 	beq	r2,zero,141e58 <__subsf3+0x464>
  141d4c:	1007883a 	mov	r3,r2
  141d50:	2823883a 	mov	r17,r5
  141d54:	003f4206 	br	141a60 <__subsf3+0x6c>
  141d58:	8000181e 	bne	r16,zero,141dbc <__subsf3+0x3c8>
  141d5c:	18002f26 	beq	r3,zero,141e1c <__subsf3+0x428>
  141d60:	0108303a 	nor	r4,zero,r4
  141d64:	20000526 	beq	r4,zero,141d7c <__subsf3+0x388>
  141d68:	01403fc4 	movi	r5,255
  141d6c:	31402b26 	beq	r6,r5,141e1c <__subsf3+0x428>
  141d70:	014006c4 	movi	r5,27
  141d74:	29003b0e 	bge	r5,r4,141e64 <__subsf3+0x470>
  141d78:	00c00044 	movi	r3,1
  141d7c:	1887883a 	add	r3,r3,r2
  141d80:	3021883a 	mov	r16,r6
  141d84:	003f6506 	br	141b1c <__subsf3+0x128>
  141d88:	1800181e 	bne	r3,zero,141dec <__subsf3+0x3f8>
  141d8c:	103f8f26 	beq	r2,zero,141bcc <__subsf3+0x1d8>
  141d90:	1007883a 	mov	r3,r2
  141d94:	2823883a 	mov	r17,r5
  141d98:	04003fc4 	movi	r16,255
  141d9c:	003f3006 	br	141a60 <__subsf3+0x6c>
  141da0:	01c00804 	movi	r7,32
  141da4:	390fc83a 	sub	r7,r7,r4
  141da8:	19ce983a 	sll	r7,r3,r7
  141dac:	1906d83a 	srl	r3,r3,r4
  141db0:	3808c03a 	cmpne	r4,r7,zero
  141db4:	20c6b03a 	or	r3,r4,r3
  141db8:	003fc106 	br	141cc0 <__subsf3+0x2cc>
  141dbc:	01403fc4 	movi	r5,255
  141dc0:	31401626 	beq	r6,r5,141e1c <__subsf3+0x428>
  141dc4:	0109c83a 	sub	r4,zero,r4
  141dc8:	18c10034 	orhi	r3,r3,1024
  141dcc:	003fe806 	br	141d70 <__subsf3+0x37c>
  141dd0:	103f2326 	beq	r2,zero,141a60 <__subsf3+0x6c>
  141dd4:	1889c83a 	sub	r4,r3,r2
  141dd8:	2181002c 	andhi	r6,r4,1024
  141ddc:	30002d26 	beq	r6,zero,141e94 <__subsf3+0x4a0>
  141de0:	10c7c83a 	sub	r3,r2,r3
  141de4:	2823883a 	mov	r17,r5
  141de8:	003f1d06 	br	141a60 <__subsf3+0x6c>
  141dec:	10001826 	beq	r2,zero,141e50 <__subsf3+0x45c>
  141df0:	1806d0fa 	srli	r3,r3,3
  141df4:	1900102c 	andhi	r4,r3,64
  141df8:	20000526 	beq	r4,zero,141e10 <__subsf3+0x41c>
  141dfc:	1004d0fa 	srli	r2,r2,3
  141e00:	1100102c 	andhi	r4,r2,64
  141e04:	2000021e 	bne	r4,zero,141e10 <__subsf3+0x41c>
  141e08:	1007883a 	mov	r3,r2
  141e0c:	2823883a 	mov	r17,r5
  141e10:	180690fa 	slli	r3,r3,3
  141e14:	04003fc4 	movi	r16,255
  141e18:	003f1106 	br	141a60 <__subsf3+0x6c>
  141e1c:	1007883a 	mov	r3,r2
  141e20:	3021883a 	mov	r16,r6
  141e24:	003f0e06 	br	141a60 <__subsf3+0x6c>
  141e28:	18001726 	beq	r3,zero,141e88 <__subsf3+0x494>
  141e2c:	10000826 	beq	r2,zero,141e50 <__subsf3+0x45c>
  141e30:	1806d0fa 	srli	r3,r3,3
  141e34:	1900102c 	andhi	r4,r3,64
  141e38:	203ff526 	beq	r4,zero,141e10 <__subsf3+0x41c>
  141e3c:	1004d0fa 	srli	r2,r2,3
  141e40:	1100102c 	andhi	r4,r2,64
  141e44:	203ff21e 	bne	r4,zero,141e10 <__subsf3+0x41c>
  141e48:	1007883a 	mov	r3,r2
  141e4c:	003ff006 	br	141e10 <__subsf3+0x41c>
  141e50:	04003fc4 	movi	r16,255
  141e54:	003f0206 	br	141a60 <__subsf3+0x6c>
  141e58:	8007883a 	mov	r3,r16
  141e5c:	000f883a 	mov	r7,zero
  141e60:	003f5e06 	br	141bdc <__subsf3+0x1e8>
  141e64:	01400804 	movi	r5,32
  141e68:	290bc83a 	sub	r5,r5,r4
  141e6c:	194a983a 	sll	r5,r3,r5
  141e70:	1906d83a 	srl	r3,r3,r4
  141e74:	2808c03a 	cmpne	r4,r5,zero
  141e78:	20c6b03a 	or	r3,r4,r3
  141e7c:	003fbf06 	br	141d7c <__subsf3+0x388>
  141e80:	1007883a 	mov	r3,r2
  141e84:	003ef606 	br	141a60 <__subsf3+0x6c>
  141e88:	1007883a 	mov	r3,r2
  141e8c:	04003fc4 	movi	r16,255
  141e90:	003ef306 	br	141a60 <__subsf3+0x6c>
  141e94:	20000226 	beq	r4,zero,141ea0 <__subsf3+0x4ac>
  141e98:	2007883a 	mov	r3,r4
  141e9c:	003ef006 	br	141a60 <__subsf3+0x6c>
  141ea0:	0007883a 	mov	r3,zero
  141ea4:	000f883a 	mov	r7,zero
  141ea8:	003f4c06 	br	141bdc <__subsf3+0x1e8>
  141eac:	00800044 	movi	r2,1
  141eb0:	003f3106 	br	141b78 <__subsf3+0x184>
  141eb4:	00800044 	movi	r2,1
  141eb8:	003f1706 	br	141b18 <__subsf3+0x124>

00141ebc <__fixsfsi>:
  141ebc:	2006d5fa 	srli	r3,r4,23
  141ec0:	00802034 	movhi	r2,128
  141ec4:	10bfffc4 	addi	r2,r2,-1
  141ec8:	01401f84 	movi	r5,126
  141ecc:	18c03fcc 	andi	r3,r3,255
  141ed0:	1104703a 	and	r2,r2,r4
  141ed4:	2008d7fa 	srli	r4,r4,31
  141ed8:	28c00e0e 	bge	r5,r3,141f14 <__fixsfsi+0x58>
  141edc:	01402744 	movi	r5,157
  141ee0:	28c00816 	blt	r5,r3,141f04 <__fixsfsi+0x48>
  141ee4:	01402544 	movi	r5,149
  141ee8:	10802034 	orhi	r2,r2,128
  141eec:	28c00b0e 	bge	r5,r3,141f1c <__fixsfsi+0x60>
  141ef0:	18ffda84 	addi	r3,r3,-150
  141ef4:	10c4983a 	sll	r2,r2,r3
  141ef8:	20000726 	beq	r4,zero,141f18 <__fixsfsi+0x5c>
  141efc:	0085c83a 	sub	r2,zero,r2
  141f00:	f800283a 	ret
  141f04:	00a00034 	movhi	r2,32768
  141f08:	10bfffc4 	addi	r2,r2,-1
  141f0c:	2085883a 	add	r2,r4,r2
  141f10:	f800283a 	ret
  141f14:	0005883a 	mov	r2,zero
  141f18:	f800283a 	ret
  141f1c:	01402584 	movi	r5,150
  141f20:	28c7c83a 	sub	r3,r5,r3
  141f24:	10c4d83a 	srl	r2,r2,r3
  141f28:	003ff306 	br	141ef8 <__fixsfsi+0x3c>

00141f2c <__floatsisf>:
  141f2c:	defffd04 	addi	sp,sp,-12
  141f30:	dc000015 	stw	r16,0(sp)
  141f34:	dfc00215 	stw	ra,8(sp)
  141f38:	dc400115 	stw	r17,4(sp)
  141f3c:	2021883a 	mov	r16,r4
  141f40:	20003e26 	beq	r4,zero,14203c <__floatsisf+0x110>
  141f44:	2022d7fa 	srli	r17,r4,31
  141f48:	88000126 	beq	r17,zero,141f50 <__floatsisf+0x24>
  141f4c:	0121c83a 	sub	r16,zero,r4
  141f50:	8009883a 	mov	r4,r16
  141f54:	01421980 	call	142198 <__clzsi2>
  141f58:	01002784 	movi	r4,158
  141f5c:	2089c83a 	sub	r4,r4,r2
  141f60:	01402584 	movi	r5,150
  141f64:	8007883a 	mov	r3,r16
  141f68:	29001416 	blt	r5,r4,141fbc <__floatsisf+0x90>
  141f6c:	10bffe04 	addi	r2,r2,-8
  141f70:	80a0983a 	sll	r16,r16,r2
  141f74:	00802034 	movhi	r2,128
  141f78:	10bfffc4 	addi	r2,r2,-1
  141f7c:	8807883a 	mov	r3,r17
  141f80:	80a0703a 	and	r16,r16,r2
  141f84:	21003fcc 	andi	r4,r4,255
  141f88:	200895fa 	slli	r4,r4,23
  141f8c:	18c03fcc 	andi	r3,r3,255
  141f90:	180697fa 	slli	r3,r3,31
  141f94:	00802034 	movhi	r2,128
  141f98:	10bfffc4 	addi	r2,r2,-1
  141f9c:	80a0703a 	and	r16,r16,r2
  141fa0:	8104b03a 	or	r2,r16,r4
  141fa4:	10c4b03a 	or	r2,r2,r3
  141fa8:	dfc00217 	ldw	ra,8(sp)
  141fac:	dc400117 	ldw	r17,4(sp)
  141fb0:	dc000017 	ldw	r16,0(sp)
  141fb4:	dec00304 	addi	sp,sp,12
  141fb8:	f800283a 	ret
  141fbc:	01402644 	movi	r5,153
  141fc0:	2900070e 	bge	r5,r4,141fe0 <__floatsisf+0xb4>
  141fc4:	114006c4 	addi	r5,r2,27
  141fc8:	01800144 	movi	r6,5
  141fcc:	814a983a 	sll	r5,r16,r5
  141fd0:	308dc83a 	sub	r6,r6,r2
  141fd4:	8186d83a 	srl	r3,r16,r6
  141fd8:	280ac03a 	cmpne	r5,r5,zero
  141fdc:	28c6b03a 	or	r3,r5,r3
  141fe0:	01400144 	movi	r5,5
  141fe4:	2880020e 	bge	r5,r2,141ff0 <__floatsisf+0xc4>
  141fe8:	117ffec4 	addi	r5,r2,-5
  141fec:	1946983a 	sll	r3,r3,r5
  141ff0:	043f0034 	movhi	r16,64512
  141ff4:	843fffc4 	addi	r16,r16,-1
  141ff8:	194001cc 	andi	r5,r3,7
  141ffc:	1c20703a 	and	r16,r3,r16
  142000:	28000426 	beq	r5,zero,142014 <__floatsisf+0xe8>
  142004:	18c003cc 	andi	r3,r3,15
  142008:	01400104 	movi	r5,4
  14200c:	19400126 	beq	r3,r5,142014 <__floatsisf+0xe8>
  142010:	8161883a 	add	r16,r16,r5
  142014:	80c1002c 	andhi	r3,r16,1024
  142018:	18000c26 	beq	r3,zero,14204c <__floatsisf+0x120>
  14201c:	010027c4 	movi	r4,159
  142020:	2089c83a 	sub	r4,r4,r2
  142024:	00803fc4 	movi	r2,255
  142028:	20801826 	beq	r4,r2,14208c <__floatsisf+0x160>
  14202c:	802091ba 	slli	r16,r16,6
  142030:	8807883a 	mov	r3,r17
  142034:	8020d27a 	srli	r16,r16,9
  142038:	003fd206 	br	141f84 <__floatsisf+0x58>
  14203c:	0007883a 	mov	r3,zero
  142040:	0009883a 	mov	r4,zero
  142044:	0021883a 	mov	r16,zero
  142048:	003fce06 	br	141f84 <__floatsisf+0x58>
  14204c:	00803fc4 	movi	r2,255
  142050:	8020d0fa 	srli	r16,r16,3
  142054:	20800526 	beq	r4,r2,14206c <__floatsisf+0x140>
  142058:	00802034 	movhi	r2,128
  14205c:	10bfffc4 	addi	r2,r2,-1
  142060:	80a0703a 	and	r16,r16,r2
  142064:	8807883a 	mov	r3,r17
  142068:	003fc606 	br	141f84 <__floatsisf+0x58>
  14206c:	80000426 	beq	r16,zero,142080 <__floatsisf+0x154>
  142070:	84001034 	orhi	r16,r16,64
  142074:	00802034 	movhi	r2,128
  142078:	10bfffc4 	addi	r2,r2,-1
  14207c:	80a0703a 	and	r16,r16,r2
  142080:	8807883a 	mov	r3,r17
  142084:	013fffc4 	movi	r4,-1
  142088:	003fbe06 	br	141f84 <__floatsisf+0x58>
  14208c:	8807883a 	mov	r3,r17
  142090:	013fffc4 	movi	r4,-1
  142094:	0021883a 	mov	r16,zero
  142098:	003fba06 	br	141f84 <__floatsisf+0x58>

0014209c <__extendsfdf2>:
  14209c:	2004d5fa 	srli	r2,r4,23
  1420a0:	defffd04 	addi	sp,sp,-12
  1420a4:	dc000015 	stw	r16,0(sp)
  1420a8:	10803fcc 	andi	r2,r2,255
  1420ac:	10c00044 	addi	r3,r2,1
  1420b0:	04002034 	movhi	r16,128
  1420b4:	843fffc4 	addi	r16,r16,-1
  1420b8:	dc400115 	stw	r17,4(sp)
  1420bc:	8120703a 	and	r16,r16,r4
  1420c0:	2022d7fa 	srli	r17,r4,31
  1420c4:	dfc00215 	stw	ra,8(sp)
  1420c8:	18c03fcc 	andi	r3,r3,255
  1420cc:	01000044 	movi	r4,1
  1420d0:	20c00d0e 	bge	r4,r3,142108 <__extendsfdf2+0x6c>
  1420d4:	8006d0fa 	srli	r3,r16,3
  1420d8:	8020977a 	slli	r16,r16,29
  1420dc:	1100e004 	addi	r4,r2,896
  1420e0:	2008953a 	slli	r4,r4,20
  1420e4:	882297fa 	slli	r17,r17,31
  1420e8:	8005883a 	mov	r2,r16
  1420ec:	1906b03a 	or	r3,r3,r4
  1420f0:	1c46b03a 	or	r3,r3,r17
  1420f4:	dfc00217 	ldw	ra,8(sp)
  1420f8:	dc400117 	ldw	r17,4(sp)
  1420fc:	dc000017 	ldw	r16,0(sp)
  142100:	dec00304 	addi	sp,sp,12
  142104:	f800283a 	ret
  142108:	1000111e 	bne	r2,zero,142150 <__extendsfdf2+0xb4>
  14210c:	80001b26 	beq	r16,zero,14217c <__extendsfdf2+0xe0>
  142110:	8009883a 	mov	r4,r16
  142114:	01421980 	call	142198 <__clzsi2>
  142118:	00c00284 	movi	r3,10
  14211c:	18801a16 	blt	r3,r2,142188 <__extendsfdf2+0xec>
  142120:	00c002c4 	movi	r3,11
  142124:	1887c83a 	sub	r3,r3,r2
  142128:	11000544 	addi	r4,r2,21
  14212c:	80c6d83a 	srl	r3,r16,r3
  142130:	8120983a 	sll	r16,r16,r4
  142134:	0100e244 	movi	r4,905
  142138:	2089c83a 	sub	r4,r4,r2
  14213c:	00800434 	movhi	r2,16
  142140:	10bfffc4 	addi	r2,r2,-1
  142144:	1886703a 	and	r3,r3,r2
  142148:	2101ffcc 	andi	r4,r4,2047
  14214c:	003fe406 	br	1420e0 <__extendsfdf2+0x44>
  142150:	80000726 	beq	r16,zero,142170 <__extendsfdf2+0xd4>
  142154:	8006d0fa 	srli	r3,r16,3
  142158:	00800434 	movhi	r2,16
  14215c:	10bfffc4 	addi	r2,r2,-1
  142160:	8020977a 	slli	r16,r16,29
  142164:	1886703a 	and	r3,r3,r2
  142168:	0101ffc4 	movi	r4,2047
  14216c:	003fdc06 	br	1420e0 <__extendsfdf2+0x44>
  142170:	0101ffc4 	movi	r4,2047
  142174:	0007883a 	mov	r3,zero
  142178:	003fd906 	br	1420e0 <__extendsfdf2+0x44>
  14217c:	0009883a 	mov	r4,zero
  142180:	0007883a 	mov	r3,zero
  142184:	003fd606 	br	1420e0 <__extendsfdf2+0x44>
  142188:	10fffd44 	addi	r3,r2,-11
  14218c:	80c6983a 	sll	r3,r16,r3
  142190:	0021883a 	mov	r16,zero
  142194:	003fe706 	br	142134 <__extendsfdf2+0x98>

00142198 <__clzsi2>:
  142198:	00bfffd4 	movui	r2,65535
  14219c:	11000b36 	bltu	r2,r4,1421cc <__clzsi2+0x34>
  1421a0:	00803fc4 	movi	r2,255
  1421a4:	11001e2e 	bgeu	r2,r4,142220 <__clzsi2+0x88>
  1421a8:	00c00204 	movi	r3,8
  1421ac:	20c8d83a 	srl	r4,r4,r3
  1421b0:	00c00574 	movhi	r3,21
  1421b4:	18c40104 	addi	r3,r3,4100
  1421b8:	00800604 	movi	r2,24
  1421bc:	1909883a 	add	r4,r3,r4
  1421c0:	20c00003 	ldbu	r3,0(r4)
  1421c4:	10c5c83a 	sub	r2,r2,r3
  1421c8:	f800283a 	ret
  1421cc:	00804034 	movhi	r2,256
  1421d0:	10bfffc4 	addi	r2,r2,-1
  1421d4:	11000936 	bltu	r2,r4,1421fc <__clzsi2+0x64>
  1421d8:	00800404 	movi	r2,16
  1421dc:	1007883a 	mov	r3,r2
  1421e0:	20c8d83a 	srl	r4,r4,r3
  1421e4:	00c00574 	movhi	r3,21
  1421e8:	18c40104 	addi	r3,r3,4100
  1421ec:	1909883a 	add	r4,r3,r4
  1421f0:	20c00003 	ldbu	r3,0(r4)
  1421f4:	10c5c83a 	sub	r2,r2,r3
  1421f8:	f800283a 	ret
  1421fc:	00c00604 	movi	r3,24
  142200:	20c8d83a 	srl	r4,r4,r3
  142204:	00c00574 	movhi	r3,21
  142208:	18c40104 	addi	r3,r3,4100
  14220c:	00800204 	movi	r2,8
  142210:	1909883a 	add	r4,r3,r4
  142214:	20c00003 	ldbu	r3,0(r4)
  142218:	10c5c83a 	sub	r2,r2,r3
  14221c:	f800283a 	ret
  142220:	0007883a 	mov	r3,zero
  142224:	20c8d83a 	srl	r4,r4,r3
  142228:	00c00574 	movhi	r3,21
  14222c:	18c40104 	addi	r3,r3,4100
  142230:	00800804 	movi	r2,32
  142234:	1909883a 	add	r4,r3,r4
  142238:	20c00003 	ldbu	r3,0(r4)
  14223c:	10c5c83a 	sub	r2,r2,r3
  142240:	f800283a 	ret

00142244 <memcpy>:
  142244:	00c003c4 	movi	r3,15
  142248:	2005883a 	mov	r2,r4
  14224c:	1980372e 	bgeu	r3,r6,14232c <memcpy+0xe8>
  142250:	2146b03a 	or	r3,r4,r5
  142254:	18c000cc 	andi	r3,r3,3
  142258:	1800371e 	bne	r3,zero,142338 <memcpy+0xf4>
  14225c:	327ffc04 	addi	r9,r6,-16
  142260:	4812d13a 	srli	r9,r9,4
  142264:	2007883a 	mov	r3,r4
  142268:	280f883a 	mov	r7,r5
  14226c:	4808913a 	slli	r4,r9,4
  142270:	1109883a 	add	r4,r2,r4
  142274:	21000404 	addi	r4,r4,16
  142278:	3a000017 	ldw	r8,0(r7)
  14227c:	18c00404 	addi	r3,r3,16
  142280:	39c00404 	addi	r7,r7,16
  142284:	1a3ffc15 	stw	r8,-16(r3)
  142288:	3a3ffd17 	ldw	r8,-12(r7)
  14228c:	1a3ffd15 	stw	r8,-12(r3)
  142290:	3a3ffe17 	ldw	r8,-8(r7)
  142294:	1a3ffe15 	stw	r8,-8(r3)
  142298:	3a3fff17 	ldw	r8,-4(r7)
  14229c:	1a3fff15 	stw	r8,-4(r3)
  1422a0:	193ff51e 	bne	r3,r4,142278 <memcpy+0x34>
  1422a4:	49000044 	addi	r4,r9,1
  1422a8:	2008913a 	slli	r4,r4,4
  1422ac:	328003cc 	andi	r10,r6,15
  1422b0:	1107883a 	add	r3,r2,r4
  1422b4:	290b883a 	add	r5,r5,r4
  1422b8:	010000c4 	movi	r4,3
  1422bc:	2280212e 	bgeu	r4,r10,142344 <memcpy+0x100>
  1422c0:	52bfff04 	addi	r10,r10,-4
  1422c4:	5014d0ba 	srli	r10,r10,2
  1422c8:	180f883a 	mov	r7,r3
  1422cc:	2811883a 	mov	r8,r5
  1422d0:	5289883a 	add	r4,r10,r10
  1422d4:	2109883a 	add	r4,r4,r4
  1422d8:	21000104 	addi	r4,r4,4
  1422dc:	1909883a 	add	r4,r3,r4
  1422e0:	42400017 	ldw	r9,0(r8)
  1422e4:	39c00104 	addi	r7,r7,4
  1422e8:	42000104 	addi	r8,r8,4
  1422ec:	3a7fff15 	stw	r9,-4(r7)
  1422f0:	393ffb1e 	bne	r7,r4,1422e0 <memcpy+0x9c>
  1422f4:	51000044 	addi	r4,r10,1
  1422f8:	2109883a 	add	r4,r4,r4
  1422fc:	2109883a 	add	r4,r4,r4
  142300:	318000cc 	andi	r6,r6,3
  142304:	1907883a 	add	r3,r3,r4
  142308:	290b883a 	add	r5,r5,r4
  14230c:	30000c26 	beq	r6,zero,142340 <memcpy+0xfc>
  142310:	298d883a 	add	r6,r5,r6
  142314:	29c00003 	ldbu	r7,0(r5)
  142318:	18c00044 	addi	r3,r3,1
  14231c:	29400044 	addi	r5,r5,1
  142320:	19ffffc5 	stb	r7,-1(r3)
  142324:	29bffb1e 	bne	r5,r6,142314 <memcpy+0xd0>
  142328:	f800283a 	ret
  14232c:	2007883a 	mov	r3,r4
  142330:	303ff71e 	bne	r6,zero,142310 <memcpy+0xcc>
  142334:	00000206 	br	142340 <memcpy+0xfc>
  142338:	2007883a 	mov	r3,r4
  14233c:	003ff406 	br	142310 <memcpy+0xcc>
  142340:	f800283a 	ret
  142344:	500d883a 	mov	r6,r10
  142348:	303ff11e 	bne	r6,zero,142310 <memcpy+0xcc>
  14234c:	003ffc06 	br	142340 <memcpy+0xfc>

00142350 <_printf_r>:
  142350:	defffd04 	addi	sp,sp,-12
  142354:	dfc00015 	stw	ra,0(sp)
  142358:	d9800115 	stw	r6,4(sp)
  14235c:	d9c00215 	stw	r7,8(sp)
  142360:	280d883a 	mov	r6,r5
  142364:	21400217 	ldw	r5,8(r4)
  142368:	d9c00104 	addi	r7,sp,4
  14236c:	01425340 	call	142534 <___vfprintf_internal_r>
  142370:	dfc00017 	ldw	ra,0(sp)
  142374:	dec00304 	addi	sp,sp,12
  142378:	f800283a 	ret

0014237c <printf>:
  14237c:	defffc04 	addi	sp,sp,-16
  142380:	dfc00015 	stw	ra,0(sp)
  142384:	d9400115 	stw	r5,4(sp)
  142388:	d9800215 	stw	r6,8(sp)
  14238c:	d9c00315 	stw	r7,12(sp)
  142390:	00800574 	movhi	r2,21
  142394:	108bab04 	addi	r2,r2,11948
  142398:	10800017 	ldw	r2,0(r2)
  14239c:	200b883a 	mov	r5,r4
  1423a0:	d9800104 	addi	r6,sp,4
  1423a4:	11000217 	ldw	r4,8(r2)
  1423a8:	01445100 	call	144510 <__vfprintf_internal>
  1423ac:	dfc00017 	ldw	ra,0(sp)
  1423b0:	dec00404 	addi	sp,sp,16
  1423b4:	f800283a 	ret

001423b8 <_putchar_r>:
  1423b8:	21800217 	ldw	r6,8(r4)
  1423bc:	0148bc41 	jmpi	148bc4 <_putc_r>

001423c0 <putchar>:
  1423c0:	00800574 	movhi	r2,21
  1423c4:	108bab04 	addi	r2,r2,11948
  1423c8:	10800017 	ldw	r2,0(r2)
  1423cc:	200b883a 	mov	r5,r4
  1423d0:	11800217 	ldw	r6,8(r2)
  1423d4:	1009883a 	mov	r4,r2
  1423d8:	0148bc41 	jmpi	148bc4 <_putc_r>

001423dc <_puts_r>:
  1423dc:	defff604 	addi	sp,sp,-40
  1423e0:	dc400815 	stw	r17,32(sp)
  1423e4:	2023883a 	mov	r17,r4
  1423e8:	2809883a 	mov	r4,r5
  1423ec:	dc000715 	stw	r16,28(sp)
  1423f0:	dfc00915 	stw	ra,36(sp)
  1423f4:	2821883a 	mov	r16,r5
  1423f8:	01424a80 	call	1424a8 <strlen>
  1423fc:	00c00574 	movhi	r3,21
  142400:	18cbab04 	addi	r3,r3,11948
  142404:	18c00017 	ldw	r3,0(r3)
  142408:	11000044 	addi	r4,r2,1
  14240c:	d8800115 	stw	r2,4(sp)
  142410:	18c00217 	ldw	r3,8(r3)
  142414:	00800574 	movhi	r2,21
  142418:	10844104 	addi	r2,r2,4356
  14241c:	d8800215 	stw	r2,8(sp)
  142420:	1940030b 	ldhu	r5,12(r3)
  142424:	00800044 	movi	r2,1
  142428:	d8800315 	stw	r2,12(sp)
  14242c:	00800084 	movi	r2,2
  142430:	d8800515 	stw	r2,20(sp)
  142434:	dc000015 	stw	r16,0(sp)
  142438:	d9000615 	stw	r4,24(sp)
  14243c:	dec00415 	stw	sp,16(sp)
  142440:	2888000c 	andi	r2,r5,8192
  142444:	1000061e 	bne	r2,zero,142460 <_puts_r+0x84>
  142448:	19001917 	ldw	r4,100(r3)
  14244c:	00b7ffc4 	movi	r2,-8193
  142450:	29480014 	ori	r5,r5,8192
  142454:	2084703a 	and	r2,r4,r2
  142458:	1940030d 	sth	r5,12(r3)
  14245c:	18801915 	stw	r2,100(r3)
  142460:	89400217 	ldw	r5,8(r17)
  142464:	8809883a 	mov	r4,r17
  142468:	d9800404 	addi	r6,sp,16
  14246c:	01468bc0 	call	1468bc <__sfvwrite_r>
  142470:	1000061e 	bne	r2,zero,14248c <_puts_r+0xb0>
  142474:	00800284 	movi	r2,10
  142478:	dfc00917 	ldw	ra,36(sp)
  14247c:	dc400817 	ldw	r17,32(sp)
  142480:	dc000717 	ldw	r16,28(sp)
  142484:	dec00a04 	addi	sp,sp,40
  142488:	f800283a 	ret
  14248c:	00bfffc4 	movi	r2,-1
  142490:	003ff906 	br	142478 <_puts_r+0x9c>

00142494 <puts>:
  142494:	00800574 	movhi	r2,21
  142498:	108bab04 	addi	r2,r2,11948
  14249c:	200b883a 	mov	r5,r4
  1424a0:	11000017 	ldw	r4,0(r2)
  1424a4:	01423dc1 	jmpi	1423dc <_puts_r>

001424a8 <strlen>:
  1424a8:	208000cc 	andi	r2,r4,3
  1424ac:	10001d26 	beq	r2,zero,142524 <strlen+0x7c>
  1424b0:	20800007 	ldb	r2,0(r4)
  1424b4:	10001d26 	beq	r2,zero,14252c <strlen+0x84>
  1424b8:	2005883a 	mov	r2,r4
  1424bc:	00000206 	br	1424c8 <strlen+0x20>
  1424c0:	10c00007 	ldb	r3,0(r2)
  1424c4:	18001526 	beq	r3,zero,14251c <strlen+0x74>
  1424c8:	10800044 	addi	r2,r2,1
  1424cc:	10c000cc 	andi	r3,r2,3
  1424d0:	183ffb1e 	bne	r3,zero,1424c0 <strlen+0x18>
  1424d4:	10c00017 	ldw	r3,0(r2)
  1424d8:	01ffbff4 	movhi	r7,65279
  1424dc:	39ffbfc4 	addi	r7,r7,-257
  1424e0:	01a02074 	movhi	r6,32897
  1424e4:	31a02004 	addi	r6,r6,-32640
  1424e8:	00000206 	br	1424f4 <strlen+0x4c>
  1424ec:	10800104 	addi	r2,r2,4
  1424f0:	10c00017 	ldw	r3,0(r2)
  1424f4:	19cb883a 	add	r5,r3,r7
  1424f8:	00c6303a 	nor	r3,zero,r3
  1424fc:	28c6703a 	and	r3,r5,r3
  142500:	1986703a 	and	r3,r3,r6
  142504:	183ff926 	beq	r3,zero,1424ec <strlen+0x44>
  142508:	10c00007 	ldb	r3,0(r2)
  14250c:	18000326 	beq	r3,zero,14251c <strlen+0x74>
  142510:	10800044 	addi	r2,r2,1
  142514:	10c00007 	ldb	r3,0(r2)
  142518:	183ffd1e 	bne	r3,zero,142510 <strlen+0x68>
  14251c:	1105c83a 	sub	r2,r2,r4
  142520:	f800283a 	ret
  142524:	2005883a 	mov	r2,r4
  142528:	003fea06 	br	1424d4 <strlen+0x2c>
  14252c:	0005883a 	mov	r2,zero
  142530:	f800283a 	ret

00142534 <___vfprintf_internal_r>:
  142534:	defeb604 	addi	sp,sp,-1320
  142538:	dfc14915 	stw	ra,1316(sp)
  14253c:	ddc14715 	stw	r23,1308(sp)
  142540:	dc414115 	stw	r17,1284(sp)
  142544:	d9012c15 	stw	r4,1200(sp)
  142548:	282f883a 	mov	r23,r5
  14254c:	3023883a 	mov	r17,r6
  142550:	d9c12f15 	stw	r7,1212(sp)
  142554:	df014815 	stw	fp,1312(sp)
  142558:	dd814615 	stw	r22,1304(sp)
  14255c:	dd414515 	stw	r21,1300(sp)
  142560:	dd014415 	stw	r20,1296(sp)
  142564:	dcc14315 	stw	r19,1292(sp)
  142568:	dc814215 	stw	r18,1288(sp)
  14256c:	dc014015 	stw	r16,1280(sp)
  142570:	0146f680 	call	146f68 <_localeconv_r>
  142574:	10800017 	ldw	r2,0(r2)
  142578:	1009883a 	mov	r4,r2
  14257c:	d8813415 	stw	r2,1232(sp)
  142580:	01424a80 	call	1424a8 <strlen>
  142584:	da812c17 	ldw	r10,1200(sp)
  142588:	d8813815 	stw	r2,1248(sp)
  14258c:	50000226 	beq	r10,zero,142598 <___vfprintf_internal_r+0x64>
  142590:	50800e17 	ldw	r2,56(r10)
  142594:	10022a26 	beq	r2,zero,142e40 <___vfprintf_internal_r+0x90c>
  142598:	b880030b 	ldhu	r2,12(r23)
  14259c:	1108000c 	andi	r4,r2,8192
  1425a0:	1007883a 	mov	r3,r2
  1425a4:	2000071e 	bne	r4,zero,1425c4 <___vfprintf_internal_r+0x90>
  1425a8:	b9001917 	ldw	r4,100(r23)
  1425ac:	10c80014 	ori	r3,r2,8192
  1425b0:	00b7ffc4 	movi	r2,-8193
  1425b4:	2088703a 	and	r4,r4,r2
  1425b8:	b8c0030d 	sth	r3,12(r23)
  1425bc:	1805883a 	mov	r2,r3
  1425c0:	b9001915 	stw	r4,100(r23)
  1425c4:	1900020c 	andi	r4,r3,8
  1425c8:	2001cd26 	beq	r4,zero,142d00 <___vfprintf_internal_r+0x7cc>
  1425cc:	b9000417 	ldw	r4,16(r23)
  1425d0:	2001cb26 	beq	r4,zero,142d00 <___vfprintf_internal_r+0x7cc>
  1425d4:	18c0068c 	andi	r3,r3,26
  1425d8:	01000284 	movi	r4,10
  1425dc:	1901d126 	beq	r3,r4,142d24 <___vfprintf_internal_r+0x7f0>
  1425e0:	da810dc4 	addi	r10,sp,1079
  1425e4:	d8800404 	addi	r2,sp,16
  1425e8:	da812815 	stw	r10,1184(sp)
  1425ec:	d8811e15 	stw	r2,1144(sp)
  1425f0:	1011883a 	mov	r8,r2
  1425f4:	d8812817 	ldw	r2,1184(sp)
  1425f8:	da810e04 	addi	r10,sp,1080
  1425fc:	da812915 	stw	r10,1188(sp)
  142600:	5095c83a 	sub	r10,r10,r2
  142604:	d8012015 	stw	zero,1152(sp)
  142608:	d8011f15 	stw	zero,1148(sp)
  14260c:	d8013515 	stw	zero,1236(sp)
  142610:	d8013715 	stw	zero,1244(sp)
  142614:	d8013915 	stw	zero,1252(sp)
  142618:	d8013b15 	stw	zero,1260(sp)
  14261c:	d8013a15 	stw	zero,1256(sp)
  142620:	d8013115 	stw	zero,1220(sp)
  142624:	04c00574 	movhi	r19,21
  142628:	9cc45284 	addi	r19,r19,4426
  14262c:	da813d15 	stw	r10,1268(sp)
  142630:	88800007 	ldb	r2,0(r17)
  142634:	10019726 	beq	r2,zero,142c94 <___vfprintf_internal_r+0x760>
  142638:	00c00944 	movi	r3,37
  14263c:	8821883a 	mov	r16,r17
  142640:	10c0021e 	bne	r2,r3,14264c <___vfprintf_internal_r+0x118>
  142644:	00001406 	br	142698 <___vfprintf_internal_r+0x164>
  142648:	10c00326 	beq	r2,r3,142658 <___vfprintf_internal_r+0x124>
  14264c:	84000044 	addi	r16,r16,1
  142650:	80800007 	ldb	r2,0(r16)
  142654:	103ffc1e 	bne	r2,zero,142648 <___vfprintf_internal_r+0x114>
  142658:	8465c83a 	sub	r18,r16,r17
  14265c:	90000e26 	beq	r18,zero,142698 <___vfprintf_internal_r+0x164>
  142660:	d8c12017 	ldw	r3,1152(sp)
  142664:	d8811f17 	ldw	r2,1148(sp)
  142668:	44400015 	stw	r17,0(r8)
  14266c:	1c87883a 	add	r3,r3,r18
  142670:	10800044 	addi	r2,r2,1
  142674:	d8c12015 	stw	r3,1152(sp)
  142678:	44800115 	stw	r18,4(r8)
  14267c:	d8811f15 	stw	r2,1148(sp)
  142680:	00c001c4 	movi	r3,7
  142684:	1881dc16 	blt	r3,r2,142df8 <___vfprintf_internal_r+0x8c4>
  142688:	42000204 	addi	r8,r8,8
  14268c:	da813117 	ldw	r10,1220(sp)
  142690:	5495883a 	add	r10,r10,r18
  142694:	da813115 	stw	r10,1220(sp)
  142698:	80800007 	ldb	r2,0(r16)
  14269c:	1001dd26 	beq	r2,zero,142e14 <___vfprintf_internal_r+0x8e0>
  1426a0:	84800047 	ldb	r18,1(r16)
  1426a4:	84400044 	addi	r17,r16,1
  1426a8:	d8012785 	stb	zero,1182(sp)
  1426ac:	000d883a 	mov	r6,zero
  1426b0:	053fffc4 	movi	r20,-1
  1426b4:	d8013015 	stw	zero,1216(sp)
  1426b8:	d8012a15 	stw	zero,1192(sp)
  1426bc:	00c01604 	movi	r3,88
  1426c0:	01000244 	movi	r4,9
  1426c4:	02400a84 	movi	r9,42
  1426c8:	01c01b04 	movi	r7,108
  1426cc:	8c400044 	addi	r17,r17,1
  1426d0:	90bff804 	addi	r2,r18,-32
  1426d4:	1882f936 	bltu	r3,r2,1432bc <___vfprintf_internal_r+0xd88>
  1426d8:	1085883a 	add	r2,r2,r2
  1426dc:	1085883a 	add	r2,r2,r2
  1426e0:	01400534 	movhi	r5,20
  1426e4:	2949bd04 	addi	r5,r5,9972
  1426e8:	1145883a 	add	r2,r2,r5
  1426ec:	10800017 	ldw	r2,0(r2)
  1426f0:	1000683a 	jmp	r2
  1426f4:	0014315c 	xori	zero,zero,20677
  1426f8:	001432bc 	xorhi	zero,zero,20682
  1426fc:	001432bc 	xorhi	zero,zero,20682
  142700:	00143100 	call	14310 <__alt_mem_onchip_memory2-0x12bcf0>
  142704:	001432bc 	xorhi	zero,zero,20682
  142708:	001432bc 	xorhi	zero,zero,20682
  14270c:	001432bc 	xorhi	zero,zero,20682
  142710:	001432bc 	xorhi	zero,zero,20682
  142714:	001432bc 	xorhi	zero,zero,20682
  142718:	001432bc 	xorhi	zero,zero,20682
  14271c:	00143114 	movui	zero,20676
  142720:	0014313c 	xorhi	zero,zero,20676
  142724:	001432bc 	xorhi	zero,zero,20682
  142728:	00142cec 	andhi	zero,zero,20659
  14272c:	0014327c 	xorhi	zero,zero,20681
  142730:	001432bc 	xorhi	zero,zero,20682
  142734:	00143148 	cmpgei	zero,zero,20677
  142738:	00142e98 	cmpnei	zero,zero,20666
  14273c:	00142e98 	cmpnei	zero,zero,20666
  142740:	00142e98 	cmpnei	zero,zero,20666
  142744:	00142e98 	cmpnei	zero,zero,20666
  142748:	00142e98 	cmpnei	zero,zero,20666
  14274c:	00142e98 	cmpnei	zero,zero,20666
  142750:	00142e98 	cmpnei	zero,zero,20666
  142754:	00142e98 	cmpnei	zero,zero,20666
  142758:	00142e98 	cmpnei	zero,zero,20666
  14275c:	001432bc 	xorhi	zero,zero,20682
  142760:	001432bc 	xorhi	zero,zero,20682
  142764:	001432bc 	xorhi	zero,zero,20682
  142768:	001432bc 	xorhi	zero,zero,20682
  14276c:	001432bc 	xorhi	zero,zero,20682
  142770:	001432bc 	xorhi	zero,zero,20682
  142774:	001432bc 	xorhi	zero,zero,20682
  142778:	001432bc 	xorhi	zero,zero,20682
  14277c:	001432bc 	xorhi	zero,zero,20682
  142780:	001432bc 	xorhi	zero,zero,20682
  142784:	00142f30 	cmpltui	zero,zero,20668
  142788:	00142f78 	rdprs	zero,zero,20669
  14278c:	001432bc 	xorhi	zero,zero,20682
  142790:	00142f78 	rdprs	zero,zero,20669
  142794:	001432bc 	xorhi	zero,zero,20682
  142798:	001432bc 	xorhi	zero,zero,20682
  14279c:	001432bc 	xorhi	zero,zero,20682
  1427a0:	001432bc 	xorhi	zero,zero,20682
  1427a4:	00143230 	cmpltui	zero,zero,20680
  1427a8:	001432bc 	xorhi	zero,zero,20682
  1427ac:	001432bc 	xorhi	zero,zero,20682
  1427b0:	00142c9c 	xori	zero,zero,20658
  1427b4:	001432bc 	xorhi	zero,zero,20682
  1427b8:	001432bc 	xorhi	zero,zero,20682
  1427bc:	001432bc 	xorhi	zero,zero,20682
  1427c0:	001432bc 	xorhi	zero,zero,20682
  1427c4:	001432bc 	xorhi	zero,zero,20682
  1427c8:	00142858 	cmpnei	zero,zero,20641
  1427cc:	001432bc 	xorhi	zero,zero,20682
  1427d0:	001432bc 	xorhi	zero,zero,20682
  1427d4:	00143074 	movhi	zero,20673
  1427d8:	001432bc 	xorhi	zero,zero,20682
  1427dc:	001432bc 	xorhi	zero,zero,20682
  1427e0:	001432bc 	xorhi	zero,zero,20682
  1427e4:	001432bc 	xorhi	zero,zero,20682
  1427e8:	001432bc 	xorhi	zero,zero,20682
  1427ec:	001432bc 	xorhi	zero,zero,20682
  1427f0:	001432bc 	xorhi	zero,zero,20682
  1427f4:	001432bc 	xorhi	zero,zero,20682
  1427f8:	001432bc 	xorhi	zero,zero,20682
  1427fc:	001432bc 	xorhi	zero,zero,20682
  142800:	00143244 	movi	zero,20681
  142804:	001430b4 	movhi	zero,20674
  142808:	00142f78 	rdprs	zero,zero,20669
  14280c:	00142f78 	rdprs	zero,zero,20669
  142810:	00142f78 	rdprs	zero,zero,20669
  142814:	001430ec 	andhi	zero,zero,20675
  142818:	001430b4 	movhi	zero,20674
  14281c:	001432bc 	xorhi	zero,zero,20682
  142820:	001432bc 	xorhi	zero,zero,20682
  142824:	00143178 	rdprs	zero,zero,20677
  142828:	001432bc 	xorhi	zero,zero,20682
  14282c:	00143194 	movui	zero,20678
  142830:	00142ca8 	cmpgeui	zero,zero,20658
  142834:	00142ecc 	andi	zero,zero,20667
  142838:	00142f1c 	xori	zero,zero,20668
  14283c:	001432bc 	xorhi	zero,zero,20682
  142840:	001431d0 	cmplti	zero,zero,20679
  142844:	001432bc 	xorhi	zero,zero,20682
  142848:	00142864 	muli	zero,zero,20641
  14284c:	001432bc 	xorhi	zero,zero,20682
  142850:	001432bc 	xorhi	zero,zero,20682
  142854:	00143014 	movui	zero,20672
  142858:	da812a17 	ldw	r10,1192(sp)
  14285c:	52800414 	ori	r10,r10,16
  142860:	da812a15 	stw	r10,1192(sp)
  142864:	da812a17 	ldw	r10,1192(sp)
  142868:	5080080c 	andi	r2,r10,32
  14286c:	1001821e 	bne	r2,zero,142e78 <___vfprintf_internal_r+0x944>
  142870:	da812a17 	ldw	r10,1192(sp)
  142874:	5080040c 	andi	r2,r10,16
  142878:	10054a26 	beq	r2,zero,143da4 <___vfprintf_internal_r+0x1870>
  14287c:	da812f17 	ldw	r10,1212(sp)
  142880:	55400017 	ldw	r21,0(r10)
  142884:	52800104 	addi	r10,r10,4
  142888:	002d883a 	mov	r22,zero
  14288c:	da812f15 	stw	r10,1212(sp)
  142890:	00c00044 	movi	r3,1
  142894:	a805883a 	mov	r2,r21
  142898:	d8012785 	stb	zero,1182(sp)
  14289c:	0039883a 	mov	fp,zero
  1428a0:	a0000416 	blt	r20,zero,1428b4 <___vfprintf_internal_r+0x380>
  1428a4:	da812a17 	ldw	r10,1192(sp)
  1428a8:	013fdfc4 	movi	r4,-129
  1428ac:	5114703a 	and	r10,r10,r4
  1428b0:	da812a15 	stw	r10,1192(sp)
  1428b4:	10029a1e 	bne	r2,zero,143320 <___vfprintf_internal_r+0xdec>
  1428b8:	a002991e 	bne	r20,zero,143320 <___vfprintf_internal_r+0xdec>
  1428bc:	18c03fcc 	andi	r3,r3,255
  1428c0:	1803d91e 	bne	r3,zero,143828 <___vfprintf_internal_r+0x12f4>
  1428c4:	da812a17 	ldw	r10,1192(sp)
  1428c8:	5080004c 	andi	r2,r10,1
  1428cc:	1003d626 	beq	r2,zero,143828 <___vfprintf_internal_r+0x12f4>
  1428d0:	da813d17 	ldw	r10,1268(sp)
  1428d4:	00800c04 	movi	r2,48
  1428d8:	d8810dc5 	stb	r2,1079(sp)
  1428dc:	da812e15 	stw	r10,1208(sp)
  1428e0:	dc010dc4 	addi	r16,sp,1079
  1428e4:	d8812e17 	ldw	r2,1208(sp)
  1428e8:	1500010e 	bge	r2,r20,1428f0 <___vfprintf_internal_r+0x3bc>
  1428ec:	a005883a 	mov	r2,r20
  1428f0:	d8812b15 	stw	r2,1196(sp)
  1428f4:	d8013315 	stw	zero,1228(sp)
  1428f8:	e0803fcc 	andi	r2,fp,255
  1428fc:	1080201c 	xori	r2,r2,128
  142900:	10bfe004 	addi	r2,r2,-128
  142904:	10000326 	beq	r2,zero,142914 <___vfprintf_internal_r+0x3e0>
  142908:	da812b17 	ldw	r10,1196(sp)
  14290c:	52800044 	addi	r10,r10,1
  142910:	da812b15 	stw	r10,1196(sp)
  142914:	d8c12a17 	ldw	r3,1192(sp)
  142918:	18c0008c 	andi	r3,r3,2
  14291c:	d8c12d15 	stw	r3,1204(sp)
  142920:	18000326 	beq	r3,zero,142930 <___vfprintf_internal_r+0x3fc>
  142924:	da812b17 	ldw	r10,1196(sp)
  142928:	52800084 	addi	r10,r10,2
  14292c:	da812b15 	stw	r10,1196(sp)
  142930:	d8c12a17 	ldw	r3,1192(sp)
  142934:	18c0210c 	andi	r3,r3,132
  142938:	d8c13215 	stw	r3,1224(sp)
  14293c:	1802661e 	bne	r3,zero,1432d8 <___vfprintf_internal_r+0xda4>
  142940:	da813017 	ldw	r10,1216(sp)
  142944:	d8c12b17 	ldw	r3,1196(sp)
  142948:	50f9c83a 	sub	fp,r10,r3
  14294c:	0702620e 	bge	zero,fp,1432d8 <___vfprintf_internal_r+0xda4>
  142950:	02800574 	movhi	r10,21
  142954:	52845684 	addi	r10,r10,4442
  142958:	02400404 	movi	r9,16
  14295c:	da813615 	stw	r10,1240(sp)
  142960:	d8c12017 	ldw	r3,1152(sp)
  142964:	d8811f17 	ldw	r2,1148(sp)
  142968:	4f00220e 	bge	r9,fp,1429f4 <___vfprintf_internal_r+0x4c0>
  14296c:	8809883a 	mov	r4,r17
  142970:	dc013c15 	stw	r16,1264(sp)
  142974:	e023883a 	mov	r17,fp
  142978:	482d883a 	mov	r22,r9
  14297c:	054001c4 	movi	r21,7
  142980:	dc012c17 	ldw	r16,1200(sp)
  142984:	2039883a 	mov	fp,r4
  142988:	00000306 	br	142998 <___vfprintf_internal_r+0x464>
  14298c:	8c7ffc04 	addi	r17,r17,-16
  142990:	42000204 	addi	r8,r8,8
  142994:	b440130e 	bge	r22,r17,1429e4 <___vfprintf_internal_r+0x4b0>
  142998:	18c00404 	addi	r3,r3,16
  14299c:	10800044 	addi	r2,r2,1
  1429a0:	01000574 	movhi	r4,21
  1429a4:	21045684 	addi	r4,r4,4442
  1429a8:	41000015 	stw	r4,0(r8)
  1429ac:	45800115 	stw	r22,4(r8)
  1429b0:	d8c12015 	stw	r3,1152(sp)
  1429b4:	d8811f15 	stw	r2,1148(sp)
  1429b8:	a8bff40e 	bge	r21,r2,14298c <___vfprintf_internal_r+0x458>
  1429bc:	8009883a 	mov	r4,r16
  1429c0:	b80b883a 	mov	r5,r23
  1429c4:	d9811e04 	addi	r6,sp,1144
  1429c8:	014963c0 	call	14963c <__sprint_r>
  1429cc:	1001171e 	bne	r2,zero,142e2c <___vfprintf_internal_r+0x8f8>
  1429d0:	8c7ffc04 	addi	r17,r17,-16
  1429d4:	d8c12017 	ldw	r3,1152(sp)
  1429d8:	d8811f17 	ldw	r2,1148(sp)
  1429dc:	da000404 	addi	r8,sp,16
  1429e0:	b47fed16 	blt	r22,r17,142998 <___vfprintf_internal_r+0x464>
  1429e4:	dc013c17 	ldw	r16,1264(sp)
  1429e8:	e009883a 	mov	r4,fp
  1429ec:	8839883a 	mov	fp,r17
  1429f0:	2023883a 	mov	r17,r4
  1429f4:	da813617 	ldw	r10,1240(sp)
  1429f8:	e0c7883a 	add	r3,fp,r3
  1429fc:	10800044 	addi	r2,r2,1
  142a00:	42800015 	stw	r10,0(r8)
  142a04:	47000115 	stw	fp,4(r8)
  142a08:	d8c12015 	stw	r3,1152(sp)
  142a0c:	d8811f15 	stw	r2,1148(sp)
  142a10:	010001c4 	movi	r4,7
  142a14:	2083bd16 	blt	r4,r2,14390c <___vfprintf_internal_r+0x13d8>
  142a18:	d8812787 	ldb	r2,1182(sp)
  142a1c:	42000204 	addi	r8,r8,8
  142a20:	10000c26 	beq	r2,zero,142a54 <___vfprintf_internal_r+0x520>
  142a24:	d8811f17 	ldw	r2,1148(sp)
  142a28:	d9012784 	addi	r4,sp,1182
  142a2c:	18c00044 	addi	r3,r3,1
  142a30:	10800044 	addi	r2,r2,1
  142a34:	41000015 	stw	r4,0(r8)
  142a38:	01000044 	movi	r4,1
  142a3c:	41000115 	stw	r4,4(r8)
  142a40:	d8c12015 	stw	r3,1152(sp)
  142a44:	d8811f15 	stw	r2,1148(sp)
  142a48:	010001c4 	movi	r4,7
  142a4c:	20834116 	blt	r4,r2,143754 <___vfprintf_internal_r+0x1220>
  142a50:	42000204 	addi	r8,r8,8
  142a54:	da812d17 	ldw	r10,1204(sp)
  142a58:	50000c26 	beq	r10,zero,142a8c <___vfprintf_internal_r+0x558>
  142a5c:	d8811f17 	ldw	r2,1148(sp)
  142a60:	d9012704 	addi	r4,sp,1180
  142a64:	18c00084 	addi	r3,r3,2
  142a68:	10800044 	addi	r2,r2,1
  142a6c:	41000015 	stw	r4,0(r8)
  142a70:	01000084 	movi	r4,2
  142a74:	41000115 	stw	r4,4(r8)
  142a78:	d8c12015 	stw	r3,1152(sp)
  142a7c:	d8811f15 	stw	r2,1148(sp)
  142a80:	010001c4 	movi	r4,7
  142a84:	20833b16 	blt	r4,r2,143774 <___vfprintf_internal_r+0x1240>
  142a88:	42000204 	addi	r8,r8,8
  142a8c:	da813217 	ldw	r10,1224(sp)
  142a90:	00802004 	movi	r2,128
  142a94:	50828326 	beq	r10,r2,1434a4 <___vfprintf_internal_r+0xf70>
  142a98:	da812e17 	ldw	r10,1208(sp)
  142a9c:	a2a9c83a 	sub	r20,r20,r10
  142aa0:	05002d0e 	bge	zero,r20,142b58 <___vfprintf_internal_r+0x624>
  142aa4:	05800404 	movi	r22,16
  142aa8:	d8811f17 	ldw	r2,1148(sp)
  142aac:	05400574 	movhi	r21,21
  142ab0:	ad445284 	addi	r21,r21,4426
  142ab4:	b5001f0e 	bge	r22,r20,142b34 <___vfprintf_internal_r+0x600>
  142ab8:	8809883a 	mov	r4,r17
  142abc:	dc012d15 	stw	r16,1204(sp)
  142ac0:	a023883a 	mov	r17,r20
  142ac4:	070001c4 	movi	fp,7
  142ac8:	dc012c17 	ldw	r16,1200(sp)
  142acc:	2029883a 	mov	r20,r4
  142ad0:	00000306 	br	142ae0 <___vfprintf_internal_r+0x5ac>
  142ad4:	8c7ffc04 	addi	r17,r17,-16
  142ad8:	42000204 	addi	r8,r8,8
  142adc:	b440110e 	bge	r22,r17,142b24 <___vfprintf_internal_r+0x5f0>
  142ae0:	18c00404 	addi	r3,r3,16
  142ae4:	10800044 	addi	r2,r2,1
  142ae8:	44c00015 	stw	r19,0(r8)
  142aec:	45800115 	stw	r22,4(r8)
  142af0:	d8c12015 	stw	r3,1152(sp)
  142af4:	d8811f15 	stw	r2,1148(sp)
  142af8:	e0bff60e 	bge	fp,r2,142ad4 <___vfprintf_internal_r+0x5a0>
  142afc:	8009883a 	mov	r4,r16
  142b00:	b80b883a 	mov	r5,r23
  142b04:	d9811e04 	addi	r6,sp,1144
  142b08:	014963c0 	call	14963c <__sprint_r>
  142b0c:	1000c71e 	bne	r2,zero,142e2c <___vfprintf_internal_r+0x8f8>
  142b10:	8c7ffc04 	addi	r17,r17,-16
  142b14:	d8c12017 	ldw	r3,1152(sp)
  142b18:	d8811f17 	ldw	r2,1148(sp)
  142b1c:	da000404 	addi	r8,sp,16
  142b20:	b47fef16 	blt	r22,r17,142ae0 <___vfprintf_internal_r+0x5ac>
  142b24:	dc012d17 	ldw	r16,1204(sp)
  142b28:	a009883a 	mov	r4,r20
  142b2c:	8829883a 	mov	r20,r17
  142b30:	2023883a 	mov	r17,r4
  142b34:	1d07883a 	add	r3,r3,r20
  142b38:	10800044 	addi	r2,r2,1
  142b3c:	45400015 	stw	r21,0(r8)
  142b40:	45000115 	stw	r20,4(r8)
  142b44:	d8c12015 	stw	r3,1152(sp)
  142b48:	d8811f15 	stw	r2,1148(sp)
  142b4c:	010001c4 	movi	r4,7
  142b50:	2082f816 	blt	r4,r2,143734 <___vfprintf_internal_r+0x1200>
  142b54:	42000204 	addi	r8,r8,8
  142b58:	da812a17 	ldw	r10,1192(sp)
  142b5c:	5080400c 	andi	r2,r10,256
  142b60:	1002061e 	bne	r2,zero,14337c <___vfprintf_internal_r+0xe48>
  142b64:	da812e17 	ldw	r10,1208(sp)
  142b68:	d8811f17 	ldw	r2,1148(sp)
  142b6c:	44000015 	stw	r16,0(r8)
  142b70:	1a87883a 	add	r3,r3,r10
  142b74:	10800044 	addi	r2,r2,1
  142b78:	42800115 	stw	r10,4(r8)
  142b7c:	d8c12015 	stw	r3,1152(sp)
  142b80:	d8811f15 	stw	r2,1148(sp)
  142b84:	010001c4 	movi	r4,7
  142b88:	2081dd16 	blt	r4,r2,143300 <___vfprintf_internal_r+0xdcc>
  142b8c:	42000204 	addi	r8,r8,8
  142b90:	da812a17 	ldw	r10,1192(sp)
  142b94:	5080010c 	andi	r2,r10,4
  142b98:	10003226 	beq	r2,zero,142c64 <___vfprintf_internal_r+0x730>
  142b9c:	da813017 	ldw	r10,1216(sp)
  142ba0:	d8812b17 	ldw	r2,1196(sp)
  142ba4:	50a1c83a 	sub	r16,r10,r2
  142ba8:	04002e0e 	bge	zero,r16,142c64 <___vfprintf_internal_r+0x730>
  142bac:	02800574 	movhi	r10,21
  142bb0:	52845684 	addi	r10,r10,4442
  142bb4:	04800404 	movi	r18,16
  142bb8:	da813615 	stw	r10,1240(sp)
  142bbc:	d8811f17 	ldw	r2,1148(sp)
  142bc0:	9400190e 	bge	r18,r16,142c28 <___vfprintf_internal_r+0x6f4>
  142bc4:	050001c4 	movi	r20,7
  142bc8:	dd412c17 	ldw	r21,1200(sp)
  142bcc:	00000306 	br	142bdc <___vfprintf_internal_r+0x6a8>
  142bd0:	843ffc04 	addi	r16,r16,-16
  142bd4:	42000204 	addi	r8,r8,8
  142bd8:	9400130e 	bge	r18,r16,142c28 <___vfprintf_internal_r+0x6f4>
  142bdc:	18c00404 	addi	r3,r3,16
  142be0:	10800044 	addi	r2,r2,1
  142be4:	01000574 	movhi	r4,21
  142be8:	21045684 	addi	r4,r4,4442
  142bec:	41000015 	stw	r4,0(r8)
  142bf0:	44800115 	stw	r18,4(r8)
  142bf4:	d8c12015 	stw	r3,1152(sp)
  142bf8:	d8811f15 	stw	r2,1148(sp)
  142bfc:	a0bff40e 	bge	r20,r2,142bd0 <___vfprintf_internal_r+0x69c>
  142c00:	a809883a 	mov	r4,r21
  142c04:	b80b883a 	mov	r5,r23
  142c08:	d9811e04 	addi	r6,sp,1144
  142c0c:	014963c0 	call	14963c <__sprint_r>
  142c10:	1000861e 	bne	r2,zero,142e2c <___vfprintf_internal_r+0x8f8>
  142c14:	843ffc04 	addi	r16,r16,-16
  142c18:	d8c12017 	ldw	r3,1152(sp)
  142c1c:	d8811f17 	ldw	r2,1148(sp)
  142c20:	da000404 	addi	r8,sp,16
  142c24:	943fed16 	blt	r18,r16,142bdc <___vfprintf_internal_r+0x6a8>
  142c28:	da813617 	ldw	r10,1240(sp)
  142c2c:	1c07883a 	add	r3,r3,r16
  142c30:	10800044 	addi	r2,r2,1
  142c34:	42800015 	stw	r10,0(r8)
  142c38:	44000115 	stw	r16,4(r8)
  142c3c:	d8c12015 	stw	r3,1152(sp)
  142c40:	d8811f15 	stw	r2,1148(sp)
  142c44:	010001c4 	movi	r4,7
  142c48:	2080060e 	bge	r4,r2,142c64 <___vfprintf_internal_r+0x730>
  142c4c:	d9012c17 	ldw	r4,1200(sp)
  142c50:	b80b883a 	mov	r5,r23
  142c54:	d9811e04 	addi	r6,sp,1144
  142c58:	014963c0 	call	14963c <__sprint_r>
  142c5c:	1000731e 	bne	r2,zero,142e2c <___vfprintf_internal_r+0x8f8>
  142c60:	d8c12017 	ldw	r3,1152(sp)
  142c64:	d8812b17 	ldw	r2,1196(sp)
  142c68:	da813017 	ldw	r10,1216(sp)
  142c6c:	1280010e 	bge	r2,r10,142c74 <___vfprintf_internal_r+0x740>
  142c70:	5005883a 	mov	r2,r10
  142c74:	da813117 	ldw	r10,1220(sp)
  142c78:	5095883a 	add	r10,r10,r2
  142c7c:	da813115 	stw	r10,1220(sp)
  142c80:	18028b1e 	bne	r3,zero,1436b0 <___vfprintf_internal_r+0x117c>
  142c84:	88800007 	ldb	r2,0(r17)
  142c88:	d8011f15 	stw	zero,1148(sp)
  142c8c:	da000404 	addi	r8,sp,16
  142c90:	103e691e 	bne	r2,zero,142638 <___vfprintf_internal_r+0x104>
  142c94:	8821883a 	mov	r16,r17
  142c98:	003e7f06 	br	142698 <___vfprintf_internal_r+0x164>
  142c9c:	da812a17 	ldw	r10,1192(sp)
  142ca0:	52800414 	ori	r10,r10,16
  142ca4:	da812a15 	stw	r10,1192(sp)
  142ca8:	da812a17 	ldw	r10,1192(sp)
  142cac:	5080080c 	andi	r2,r10,32
  142cb0:	10006626 	beq	r2,zero,142e4c <___vfprintf_internal_r+0x918>
  142cb4:	da812f17 	ldw	r10,1212(sp)
  142cb8:	0007883a 	mov	r3,zero
  142cbc:	55400017 	ldw	r21,0(r10)
  142cc0:	55800117 	ldw	r22,4(r10)
  142cc4:	52800204 	addi	r10,r10,8
  142cc8:	da812f15 	stw	r10,1212(sp)
  142ccc:	ad84b03a 	or	r2,r21,r22
  142cd0:	d8012785 	stb	zero,1182(sp)
  142cd4:	0039883a 	mov	fp,zero
  142cd8:	003ef106 	br	1428a0 <___vfprintf_internal_r+0x36c>
  142cdc:	da813017 	ldw	r10,1216(sp)
  142ce0:	d8812f15 	stw	r2,1212(sp)
  142ce4:	0295c83a 	sub	r10,zero,r10
  142ce8:	da813015 	stw	r10,1216(sp)
  142cec:	da812a17 	ldw	r10,1192(sp)
  142cf0:	52800114 	ori	r10,r10,4
  142cf4:	da812a15 	stw	r10,1192(sp)
  142cf8:	8c800007 	ldb	r18,0(r17)
  142cfc:	003e7306 	br	1426cc <___vfprintf_internal_r+0x198>
  142d00:	d9012c17 	ldw	r4,1200(sp)
  142d04:	b80b883a 	mov	r5,r23
  142d08:	01445340 	call	144534 <__swsetup_r>
  142d0c:	10002d1e 	bne	r2,zero,142dc4 <___vfprintf_internal_r+0x890>
  142d10:	b880030b 	ldhu	r2,12(r23)
  142d14:	01000284 	movi	r4,10
  142d18:	1007883a 	mov	r3,r2
  142d1c:	18c0068c 	andi	r3,r3,26
  142d20:	193e2f1e 	bne	r3,r4,1425e0 <___vfprintf_internal_r+0xac>
  142d24:	b8c0038b 	ldhu	r3,14(r23)
  142d28:	193fffcc 	andi	r4,r3,65535
  142d2c:	2120001c 	xori	r4,r4,32768
  142d30:	21200004 	addi	r4,r4,-32768
  142d34:	203e2a16 	blt	r4,zero,1425e0 <___vfprintf_internal_r+0xac>
  142d38:	bac01917 	ldw	r11,100(r23)
  142d3c:	ba800717 	ldw	r10,28(r23)
  142d40:	ba400917 	ldw	r9,36(r23)
  142d44:	d9012c17 	ldw	r4,1200(sp)
  142d48:	d9c12f17 	ldw	r7,1212(sp)
  142d4c:	10bfff4c 	andi	r2,r2,65533
  142d50:	02010004 	movi	r8,1024
  142d54:	d881070d 	sth	r2,1052(sp)
  142d58:	d9410404 	addi	r5,sp,1040
  142d5c:	d8800404 	addi	r2,sp,16
  142d60:	880d883a 	mov	r6,r17
  142d64:	dac11d15 	stw	r11,1140(sp)
  142d68:	d8c1078d 	sth	r3,1054(sp)
  142d6c:	da810b15 	stw	r10,1068(sp)
  142d70:	da410d15 	stw	r9,1076(sp)
  142d74:	d8810415 	stw	r2,1040(sp)
  142d78:	d8810815 	stw	r2,1056(sp)
  142d7c:	da010615 	stw	r8,1048(sp)
  142d80:	da010915 	stw	r8,1060(sp)
  142d84:	d8010a15 	stw	zero,1064(sp)
  142d88:	01425340 	call	142534 <___vfprintf_internal_r>
  142d8c:	1021883a 	mov	r16,r2
  142d90:	10000416 	blt	r2,zero,142da4 <___vfprintf_internal_r+0x870>
  142d94:	d9012c17 	ldw	r4,1200(sp)
  142d98:	d9410404 	addi	r5,sp,1040
  142d9c:	0145eac0 	call	145eac <_fflush_r>
  142da0:	1005cc1e 	bne	r2,zero,1444d4 <___vfprintf_internal_r+0x1fa0>
  142da4:	d881070b 	ldhu	r2,1052(sp)
  142da8:	1080100c 	andi	r2,r2,64
  142dac:	10000326 	beq	r2,zero,142dbc <___vfprintf_internal_r+0x888>
  142db0:	b880030b 	ldhu	r2,12(r23)
  142db4:	10801014 	ori	r2,r2,64
  142db8:	b880030d 	sth	r2,12(r23)
  142dbc:	8005883a 	mov	r2,r16
  142dc0:	00000106 	br	142dc8 <___vfprintf_internal_r+0x894>
  142dc4:	00bfffc4 	movi	r2,-1
  142dc8:	dfc14917 	ldw	ra,1316(sp)
  142dcc:	df014817 	ldw	fp,1312(sp)
  142dd0:	ddc14717 	ldw	r23,1308(sp)
  142dd4:	dd814617 	ldw	r22,1304(sp)
  142dd8:	dd414517 	ldw	r21,1300(sp)
  142ddc:	dd014417 	ldw	r20,1296(sp)
  142de0:	dcc14317 	ldw	r19,1292(sp)
  142de4:	dc814217 	ldw	r18,1288(sp)
  142de8:	dc414117 	ldw	r17,1284(sp)
  142dec:	dc014017 	ldw	r16,1280(sp)
  142df0:	dec14a04 	addi	sp,sp,1320
  142df4:	f800283a 	ret
  142df8:	d9012c17 	ldw	r4,1200(sp)
  142dfc:	b80b883a 	mov	r5,r23
  142e00:	d9811e04 	addi	r6,sp,1144
  142e04:	014963c0 	call	14963c <__sprint_r>
  142e08:	1000081e 	bne	r2,zero,142e2c <___vfprintf_internal_r+0x8f8>
  142e0c:	da000404 	addi	r8,sp,16
  142e10:	003e1e06 	br	14268c <___vfprintf_internal_r+0x158>
  142e14:	d8812017 	ldw	r2,1152(sp)
  142e18:	10000426 	beq	r2,zero,142e2c <___vfprintf_internal_r+0x8f8>
  142e1c:	d9012c17 	ldw	r4,1200(sp)
  142e20:	b80b883a 	mov	r5,r23
  142e24:	d9811e04 	addi	r6,sp,1144
  142e28:	014963c0 	call	14963c <__sprint_r>
  142e2c:	b880030b 	ldhu	r2,12(r23)
  142e30:	1080100c 	andi	r2,r2,64
  142e34:	103fe31e 	bne	r2,zero,142dc4 <___vfprintf_internal_r+0x890>
  142e38:	d8813117 	ldw	r2,1220(sp)
  142e3c:	003fe206 	br	142dc8 <___vfprintf_internal_r+0x894>
  142e40:	5009883a 	mov	r4,r10
  142e44:	01461b80 	call	1461b8 <__sinit>
  142e48:	003dd306 	br	142598 <___vfprintf_internal_r+0x64>
  142e4c:	da812a17 	ldw	r10,1192(sp)
  142e50:	5080040c 	andi	r2,r10,16
  142e54:	1003d926 	beq	r2,zero,143dbc <___vfprintf_internal_r+0x1888>
  142e58:	da812f17 	ldw	r10,1212(sp)
  142e5c:	55400017 	ldw	r21,0(r10)
  142e60:	52800104 	addi	r10,r10,4
  142e64:	002d883a 	mov	r22,zero
  142e68:	da812f15 	stw	r10,1212(sp)
  142e6c:	0007883a 	mov	r3,zero
  142e70:	a805883a 	mov	r2,r21
  142e74:	003f9606 	br	142cd0 <___vfprintf_internal_r+0x79c>
  142e78:	da812f17 	ldw	r10,1212(sp)
  142e7c:	00c00044 	movi	r3,1
  142e80:	55400017 	ldw	r21,0(r10)
  142e84:	55800117 	ldw	r22,4(r10)
  142e88:	52800204 	addi	r10,r10,8
  142e8c:	da812f15 	stw	r10,1212(sp)
  142e90:	ad84b03a 	or	r2,r21,r22
  142e94:	003f8e06 	br	142cd0 <___vfprintf_internal_r+0x79c>
  142e98:	d8013015 	stw	zero,1216(sp)
  142e9c:	90bff404 	addi	r2,r18,-48
  142ea0:	000b883a 	mov	r5,zero
  142ea4:	8c800007 	ldb	r18,0(r17)
  142ea8:	294002a4 	muli	r5,r5,10
  142eac:	8c400044 	addi	r17,r17,1
  142eb0:	8815883a 	mov	r10,r17
  142eb4:	288b883a 	add	r5,r5,r2
  142eb8:	90bff404 	addi	r2,r18,-48
  142ebc:	20bff92e 	bgeu	r4,r2,142ea4 <___vfprintf_internal_r+0x970>
  142ec0:	d9413015 	stw	r5,1216(sp)
  142ec4:	5023883a 	mov	r17,r10
  142ec8:	003e0106 	br	1426d0 <___vfprintf_internal_r+0x19c>
  142ecc:	da812f17 	ldw	r10,1212(sp)
  142ed0:	00800c04 	movi	r2,48
  142ed4:	d8812705 	stb	r2,1180(sp)
  142ed8:	55400017 	ldw	r21,0(r10)
  142edc:	da812a17 	ldw	r10,1192(sp)
  142ee0:	00801e04 	movi	r2,120
  142ee4:	d8812745 	stb	r2,1181(sp)
  142ee8:	52800094 	ori	r10,r10,2
  142eec:	da812a15 	stw	r10,1192(sp)
  142ef0:	da812f17 	ldw	r10,1212(sp)
  142ef4:	002d883a 	mov	r22,zero
  142ef8:	00c00084 	movi	r3,2
  142efc:	52800104 	addi	r10,r10,4
  142f00:	da812f15 	stw	r10,1212(sp)
  142f04:	02800574 	movhi	r10,21
  142f08:	52844b04 	addi	r10,r10,4396
  142f0c:	da813b15 	stw	r10,1260(sp)
  142f10:	04801e04 	movi	r18,120
  142f14:	a805883a 	mov	r2,r21
  142f18:	003f6d06 	br	142cd0 <___vfprintf_internal_r+0x79c>
  142f1c:	da812a17 	ldw	r10,1192(sp)
  142f20:	52800814 	ori	r10,r10,32
  142f24:	da812a15 	stw	r10,1192(sp)
  142f28:	8c800007 	ldb	r18,0(r17)
  142f2c:	003de706 	br	1426cc <___vfprintf_internal_r+0x198>
  142f30:	da812a17 	ldw	r10,1192(sp)
  142f34:	d9812785 	stb	r6,1182(sp)
  142f38:	52800414 	ori	r10,r10,16
  142f3c:	da812a15 	stw	r10,1192(sp)
  142f40:	da812a17 	ldw	r10,1192(sp)
  142f44:	5080080c 	andi	r2,r10,32
  142f48:	10005e26 	beq	r2,zero,1430c4 <___vfprintf_internal_r+0xb90>
  142f4c:	da812f17 	ldw	r10,1212(sp)
  142f50:	50800117 	ldw	r2,4(r10)
  142f54:	55400017 	ldw	r21,0(r10)
  142f58:	52800204 	addi	r10,r10,8
  142f5c:	da812f15 	stw	r10,1212(sp)
  142f60:	102d883a 	mov	r22,r2
  142f64:	10030516 	blt	r2,zero,143b7c <___vfprintf_internal_r+0x1648>
  142f68:	df012783 	ldbu	fp,1182(sp)
  142f6c:	00c00044 	movi	r3,1
  142f70:	ad84b03a 	or	r2,r21,r22
  142f74:	003e4a06 	br	1428a0 <___vfprintf_internal_r+0x36c>
  142f78:	da812f17 	ldw	r10,1212(sp)
  142f7c:	d9812785 	stb	r6,1182(sp)
  142f80:	04000044 	movi	r16,1
  142f84:	52800017 	ldw	r10,0(r10)
  142f88:	da813715 	stw	r10,1244(sp)
  142f8c:	da812f17 	ldw	r10,1212(sp)
  142f90:	d9013717 	ldw	r4,1244(sp)
  142f94:	52800117 	ldw	r10,4(r10)
  142f98:	da013f15 	stw	r8,1276(sp)
  142f9c:	da813915 	stw	r10,1252(sp)
  142fa0:	da812f17 	ldw	r10,1212(sp)
  142fa4:	d9413917 	ldw	r5,1252(sp)
  142fa8:	52800204 	addi	r10,r10,8
  142fac:	da812f15 	stw	r10,1212(sp)
  142fb0:	01492940 	call	149294 <__fpclassifyd>
  142fb4:	da013f17 	ldw	r8,1276(sp)
  142fb8:	d9013717 	ldw	r4,1244(sp)
  142fbc:	d9413917 	ldw	r5,1252(sp)
  142fc0:	1402f71e 	bne	r2,r16,143ba0 <___vfprintf_internal_r+0x166c>
  142fc4:	000d883a 	mov	r6,zero
  142fc8:	000f883a 	mov	r7,zero
  142fcc:	014d2100 	call	14d210 <__ledf2>
  142fd0:	da013f17 	ldw	r8,1276(sp)
  142fd4:	10045a16 	blt	r2,zero,144140 <___vfprintf_internal_r+0x1c0c>
  142fd8:	df012783 	ldbu	fp,1182(sp)
  142fdc:	008011c4 	movi	r2,71
  142fe0:	1483ef0e 	bge	r2,r18,143fa0 <___vfprintf_internal_r+0x1a6c>
  142fe4:	04000574 	movhi	r16,21
  142fe8:	84044304 	addi	r16,r16,4364
  142fec:	da812a17 	ldw	r10,1192(sp)
  142ff0:	00bfdfc4 	movi	r2,-129
  142ff4:	00c000c4 	movi	r3,3
  142ff8:	5094703a 	and	r10,r10,r2
  142ffc:	d8c12b15 	stw	r3,1196(sp)
  143000:	da812a15 	stw	r10,1192(sp)
  143004:	d8c12e15 	stw	r3,1208(sp)
  143008:	0029883a 	mov	r20,zero
  14300c:	d8013315 	stw	zero,1228(sp)
  143010:	003e3906 	br	1428f8 <___vfprintf_internal_r+0x3c4>
  143014:	02800574 	movhi	r10,21
  143018:	52844b04 	addi	r10,r10,4396
  14301c:	da813b15 	stw	r10,1260(sp)
  143020:	da812a17 	ldw	r10,1192(sp)
  143024:	d9812785 	stb	r6,1182(sp)
  143028:	5080080c 	andi	r2,r10,32
  14302c:	10001826 	beq	r2,zero,143090 <___vfprintf_internal_r+0xb5c>
  143030:	da812f17 	ldw	r10,1212(sp)
  143034:	55400017 	ldw	r21,0(r10)
  143038:	55800117 	ldw	r22,4(r10)
  14303c:	52800204 	addi	r10,r10,8
  143040:	da812f15 	stw	r10,1212(sp)
  143044:	da812a17 	ldw	r10,1192(sp)
  143048:	5080004c 	andi	r2,r10,1
  14304c:	10025826 	beq	r2,zero,1439b0 <___vfprintf_internal_r+0x147c>
  143050:	ad84b03a 	or	r2,r21,r22
  143054:	10035126 	beq	r2,zero,143d9c <___vfprintf_internal_r+0x1868>
  143058:	00c00c04 	movi	r3,48
  14305c:	52800094 	ori	r10,r10,2
  143060:	d8c12705 	stb	r3,1180(sp)
  143064:	dc812745 	stb	r18,1181(sp)
  143068:	da812a15 	stw	r10,1192(sp)
  14306c:	00c00084 	movi	r3,2
  143070:	003f1706 	br	142cd0 <___vfprintf_internal_r+0x79c>
  143074:	02800574 	movhi	r10,21
  143078:	52844604 	addi	r10,r10,4376
  14307c:	da813b15 	stw	r10,1260(sp)
  143080:	da812a17 	ldw	r10,1192(sp)
  143084:	d9812785 	stb	r6,1182(sp)
  143088:	5080080c 	andi	r2,r10,32
  14308c:	103fe81e 	bne	r2,zero,143030 <___vfprintf_internal_r+0xafc>
  143090:	da812a17 	ldw	r10,1192(sp)
  143094:	5080040c 	andi	r2,r10,16
  143098:	10033726 	beq	r2,zero,143d78 <___vfprintf_internal_r+0x1844>
  14309c:	da812f17 	ldw	r10,1212(sp)
  1430a0:	002d883a 	mov	r22,zero
  1430a4:	55400017 	ldw	r21,0(r10)
  1430a8:	52800104 	addi	r10,r10,4
  1430ac:	da812f15 	stw	r10,1212(sp)
  1430b0:	003fe406 	br	143044 <___vfprintf_internal_r+0xb10>
  1430b4:	da812a17 	ldw	r10,1192(sp)
  1430b8:	d9812785 	stb	r6,1182(sp)
  1430bc:	5080080c 	andi	r2,r10,32
  1430c0:	103fa21e 	bne	r2,zero,142f4c <___vfprintf_internal_r+0xa18>
  1430c4:	da812a17 	ldw	r10,1192(sp)
  1430c8:	5080040c 	andi	r2,r10,16
  1430cc:	10034126 	beq	r2,zero,143dd4 <___vfprintf_internal_r+0x18a0>
  1430d0:	da812f17 	ldw	r10,1212(sp)
  1430d4:	55400017 	ldw	r21,0(r10)
  1430d8:	52800104 	addi	r10,r10,4
  1430dc:	da812f15 	stw	r10,1212(sp)
  1430e0:	a82dd7fa 	srai	r22,r21,31
  1430e4:	b005883a 	mov	r2,r22
  1430e8:	003f9e06 	br	142f64 <___vfprintf_internal_r+0xa30>
  1430ec:	da812a17 	ldw	r10,1192(sp)
  1430f0:	52801014 	ori	r10,r10,64
  1430f4:	da812a15 	stw	r10,1192(sp)
  1430f8:	8c800007 	ldb	r18,0(r17)
  1430fc:	003d7306 	br	1426cc <___vfprintf_internal_r+0x198>
  143100:	da812a17 	ldw	r10,1192(sp)
  143104:	52800054 	ori	r10,r10,1
  143108:	da812a15 	stw	r10,1192(sp)
  14310c:	8c800007 	ldb	r18,0(r17)
  143110:	003d6e06 	br	1426cc <___vfprintf_internal_r+0x198>
  143114:	da812f17 	ldw	r10,1212(sp)
  143118:	52800017 	ldw	r10,0(r10)
  14311c:	da813015 	stw	r10,1216(sp)
  143120:	da812f17 	ldw	r10,1212(sp)
  143124:	50800104 	addi	r2,r10,4
  143128:	da813017 	ldw	r10,1216(sp)
  14312c:	503eeb16 	blt	r10,zero,142cdc <___vfprintf_internal_r+0x7a8>
  143130:	d8812f15 	stw	r2,1212(sp)
  143134:	8c800007 	ldb	r18,0(r17)
  143138:	003d6406 	br	1426cc <___vfprintf_internal_r+0x198>
  14313c:	01800ac4 	movi	r6,43
  143140:	8c800007 	ldb	r18,0(r17)
  143144:	003d6106 	br	1426cc <___vfprintf_internal_r+0x198>
  143148:	da812a17 	ldw	r10,1192(sp)
  14314c:	52802014 	ori	r10,r10,128
  143150:	da812a15 	stw	r10,1192(sp)
  143154:	8c800007 	ldb	r18,0(r17)
  143158:	003d5c06 	br	1426cc <___vfprintf_internal_r+0x198>
  14315c:	30803fcc 	andi	r2,r6,255
  143160:	1080201c 	xori	r2,r2,128
  143164:	10bfe004 	addi	r2,r2,-128
  143168:	1003011e 	bne	r2,zero,143d70 <___vfprintf_internal_r+0x183c>
  14316c:	01800804 	movi	r6,32
  143170:	8c800007 	ldb	r18,0(r17)
  143174:	003d5506 	br	1426cc <___vfprintf_internal_r+0x198>
  143178:	8c800007 	ldb	r18,0(r17)
  14317c:	8805883a 	mov	r2,r17
  143180:	91c39526 	beq	r18,r7,143fd8 <___vfprintf_internal_r+0x1aa4>
  143184:	da812a17 	ldw	r10,1192(sp)
  143188:	52800414 	ori	r10,r10,16
  14318c:	da812a15 	stw	r10,1192(sp)
  143190:	003d4e06 	br	1426cc <___vfprintf_internal_r+0x198>
  143194:	da812a17 	ldw	r10,1192(sp)
  143198:	d9812785 	stb	r6,1182(sp)
  14319c:	5080080c 	andi	r2,r10,32
  1431a0:	1002df26 	beq	r2,zero,143d20 <___vfprintf_internal_r+0x17ec>
  1431a4:	da812f17 	ldw	r10,1212(sp)
  1431a8:	50800017 	ldw	r2,0(r10)
  1431ac:	da813117 	ldw	r10,1220(sp)
  1431b0:	5007d7fa 	srai	r3,r10,31
  1431b4:	da812f17 	ldw	r10,1212(sp)
  1431b8:	10c00115 	stw	r3,4(r2)
  1431bc:	52800104 	addi	r10,r10,4
  1431c0:	da812f15 	stw	r10,1212(sp)
  1431c4:	da813117 	ldw	r10,1220(sp)
  1431c8:	12800015 	stw	r10,0(r2)
  1431cc:	003d1806 	br	142630 <___vfprintf_internal_r+0xfc>
  1431d0:	da812f17 	ldw	r10,1212(sp)
  1431d4:	d8012785 	stb	zero,1182(sp)
  1431d8:	54000017 	ldw	r16,0(r10)
  1431dc:	55400104 	addi	r21,r10,4
  1431e0:	8003c926 	beq	r16,zero,144108 <___vfprintf_internal_r+0x1bd4>
  1431e4:	8009883a 	mov	r4,r16
  1431e8:	a0039616 	blt	r20,zero,144044 <___vfprintf_internal_r+0x1b10>
  1431ec:	000b883a 	mov	r5,zero
  1431f0:	a00d883a 	mov	r6,r20
  1431f4:	da013f15 	stw	r8,1276(sp)
  1431f8:	01479140 	call	147914 <memchr>
  1431fc:	da013f17 	ldw	r8,1276(sp)
  143200:	10043126 	beq	r2,zero,1442c8 <___vfprintf_internal_r+0x1d94>
  143204:	1405c83a 	sub	r2,r2,r16
  143208:	d8812e15 	stw	r2,1208(sp)
  14320c:	a0834e16 	blt	r20,r2,143f48 <___vfprintf_internal_r+0x1a14>
  143210:	d8812e17 	ldw	r2,1208(sp)
  143214:	10039016 	blt	r2,zero,144058 <___vfprintf_internal_r+0x1b24>
  143218:	df012783 	ldbu	fp,1182(sp)
  14321c:	d8812b15 	stw	r2,1196(sp)
  143220:	dd412f15 	stw	r21,1212(sp)
  143224:	0029883a 	mov	r20,zero
  143228:	d8013315 	stw	zero,1228(sp)
  14322c:	003db206 	br	1428f8 <___vfprintf_internal_r+0x3c4>
  143230:	da812a17 	ldw	r10,1192(sp)
  143234:	52800214 	ori	r10,r10,8
  143238:	da812a15 	stw	r10,1192(sp)
  14323c:	8c800007 	ldb	r18,0(r17)
  143240:	003d2206 	br	1426cc <___vfprintf_internal_r+0x198>
  143244:	da812f17 	ldw	r10,1212(sp)
  143248:	00c00044 	movi	r3,1
  14324c:	d8c12b15 	stw	r3,1196(sp)
  143250:	50800017 	ldw	r2,0(r10)
  143254:	52800104 	addi	r10,r10,4
  143258:	d8012785 	stb	zero,1182(sp)
  14325c:	d8810405 	stb	r2,1040(sp)
  143260:	da812f15 	stw	r10,1212(sp)
  143264:	d8c12e15 	stw	r3,1208(sp)
  143268:	0029883a 	mov	r20,zero
  14326c:	d8013315 	stw	zero,1228(sp)
  143270:	dc010404 	addi	r16,sp,1040
  143274:	0005883a 	mov	r2,zero
  143278:	003da606 	br	142914 <___vfprintf_internal_r+0x3e0>
  14327c:	8c800007 	ldb	r18,0(r17)
  143280:	89400044 	addi	r5,r17,1
  143284:	92448326 	beq	r18,r9,144494 <___vfprintf_internal_r+0x1f60>
  143288:	90bff404 	addi	r2,r18,-48
  14328c:	2823883a 	mov	r17,r5
  143290:	0029883a 	mov	r20,zero
  143294:	20bd0e36 	bltu	r4,r2,1426d0 <___vfprintf_internal_r+0x19c>
  143298:	8c800007 	ldb	r18,0(r17)
  14329c:	a50002a4 	muli	r20,r20,10
  1432a0:	8c400044 	addi	r17,r17,1
  1432a4:	1529883a 	add	r20,r2,r20
  1432a8:	90bff404 	addi	r2,r18,-48
  1432ac:	20bffa2e 	bgeu	r4,r2,143298 <___vfprintf_internal_r+0xd64>
  1432b0:	a03d070e 	bge	r20,zero,1426d0 <___vfprintf_internal_r+0x19c>
  1432b4:	053fffc4 	movi	r20,-1
  1432b8:	003d0506 	br	1426d0 <___vfprintf_internal_r+0x19c>
  1432bc:	d9812785 	stb	r6,1182(sp)
  1432c0:	903ed426 	beq	r18,zero,142e14 <___vfprintf_internal_r+0x8e0>
  1432c4:	00c00044 	movi	r3,1
  1432c8:	d8c12b15 	stw	r3,1196(sp)
  1432cc:	dc810405 	stb	r18,1040(sp)
  1432d0:	d8012785 	stb	zero,1182(sp)
  1432d4:	003fe306 	br	143264 <___vfprintf_internal_r+0xd30>
  1432d8:	d8c12017 	ldw	r3,1152(sp)
  1432dc:	003dd006 	br	142a20 <___vfprintf_internal_r+0x4ec>
  1432e0:	45400015 	stw	r21,0(r8)
  1432e4:	44000115 	stw	r16,4(r8)
  1432e8:	1c07883a 	add	r3,r3,r16
  1432ec:	10800044 	addi	r2,r2,1
  1432f0:	d8c12015 	stw	r3,1152(sp)
  1432f4:	d8811f15 	stw	r2,1148(sp)
  1432f8:	010001c4 	movi	r4,7
  1432fc:	20be230e 	bge	r4,r2,142b8c <___vfprintf_internal_r+0x658>
  143300:	d9012c17 	ldw	r4,1200(sp)
  143304:	b80b883a 	mov	r5,r23
  143308:	d9811e04 	addi	r6,sp,1144
  14330c:	014963c0 	call	14963c <__sprint_r>
  143310:	103ec61e 	bne	r2,zero,142e2c <___vfprintf_internal_r+0x8f8>
  143314:	d8c12017 	ldw	r3,1152(sp)
  143318:	da000404 	addi	r8,sp,16
  14331c:	003e1c06 	br	142b90 <___vfprintf_internal_r+0x65c>
  143320:	18803fcc 	andi	r2,r3,255
  143324:	00c00044 	movi	r3,1
  143328:	10c11a26 	beq	r2,r3,143794 <___vfprintf_internal_r+0x1260>
  14332c:	00c00084 	movi	r3,2
  143330:	10c0e51e 	bne	r2,r3,1436c8 <___vfprintf_internal_r+0x1194>
  143334:	d9413b17 	ldw	r5,1260(sp)
  143338:	d8c10dc4 	addi	r3,sp,1079
  14333c:	a88003cc 	andi	r2,r21,15
  143340:	b008973a 	slli	r4,r22,28
  143344:	2885883a 	add	r2,r5,r2
  143348:	a82ad13a 	srli	r21,r21,4
  14334c:	10800003 	ldbu	r2,0(r2)
  143350:	b02cd13a 	srli	r22,r22,4
  143354:	256ab03a 	or	r21,r4,r21
  143358:	18800005 	stb	r2,0(r3)
  14335c:	ad84b03a 	or	r2,r21,r22
  143360:	1821883a 	mov	r16,r3
  143364:	18ffffc4 	addi	r3,r3,-1
  143368:	103ff41e 	bne	r2,zero,14333c <___vfprintf_internal_r+0xe08>
  14336c:	da812917 	ldw	r10,1188(sp)
  143370:	5415c83a 	sub	r10,r10,r16
  143374:	da812e15 	stw	r10,1208(sp)
  143378:	003d5a06 	br	1428e4 <___vfprintf_internal_r+0x3b0>
  14337c:	00801944 	movi	r2,101
  143380:	14807e0e 	bge	r2,r18,14357c <___vfprintf_internal_r+0x1048>
  143384:	d9013717 	ldw	r4,1244(sp)
  143388:	d9413917 	ldw	r5,1252(sp)
  14338c:	000d883a 	mov	r6,zero
  143390:	000f883a 	mov	r7,zero
  143394:	d8c13e15 	stw	r3,1272(sp)
  143398:	da013f15 	stw	r8,1276(sp)
  14339c:	014d0b40 	call	14d0b4 <__eqdf2>
  1433a0:	d8c13e17 	ldw	r3,1272(sp)
  1433a4:	da013f17 	ldw	r8,1276(sp)
  1433a8:	1001221e 	bne	r2,zero,143834 <___vfprintf_internal_r+0x1300>
  1433ac:	d8811f17 	ldw	r2,1148(sp)
  1433b0:	01000574 	movhi	r4,21
  1433b4:	21045204 	addi	r4,r4,4424
  1433b8:	18c00044 	addi	r3,r3,1
  1433bc:	10800044 	addi	r2,r2,1
  1433c0:	41000015 	stw	r4,0(r8)
  1433c4:	01000044 	movi	r4,1
  1433c8:	41000115 	stw	r4,4(r8)
  1433cc:	d8c12015 	stw	r3,1152(sp)
  1433d0:	d8811f15 	stw	r2,1148(sp)
  1433d4:	010001c4 	movi	r4,7
  1433d8:	20829616 	blt	r4,r2,143e34 <___vfprintf_internal_r+0x1900>
  1433dc:	42000204 	addi	r8,r8,8
  1433e0:	d8812617 	ldw	r2,1176(sp)
  1433e4:	da813517 	ldw	r10,1236(sp)
  1433e8:	12800316 	blt	r2,r10,1433f8 <___vfprintf_internal_r+0xec4>
  1433ec:	da812a17 	ldw	r10,1192(sp)
  1433f0:	5080004c 	andi	r2,r10,1
  1433f4:	103de626 	beq	r2,zero,142b90 <___vfprintf_internal_r+0x65c>
  1433f8:	da813817 	ldw	r10,1248(sp)
  1433fc:	d8811f17 	ldw	r2,1148(sp)
  143400:	010001c4 	movi	r4,7
  143404:	1a87883a 	add	r3,r3,r10
  143408:	da813417 	ldw	r10,1232(sp)
  14340c:	10800044 	addi	r2,r2,1
  143410:	d8c12015 	stw	r3,1152(sp)
  143414:	42800015 	stw	r10,0(r8)
  143418:	da813817 	ldw	r10,1248(sp)
  14341c:	d8811f15 	stw	r2,1148(sp)
  143420:	42800115 	stw	r10,4(r8)
  143424:	2082f216 	blt	r4,r2,143ff0 <___vfprintf_internal_r+0x1abc>
  143428:	42000204 	addi	r8,r8,8
  14342c:	da813517 	ldw	r10,1236(sp)
  143430:	543fffc4 	addi	r16,r10,-1
  143434:	043dd60e 	bge	zero,r16,142b90 <___vfprintf_internal_r+0x65c>
  143438:	04800404 	movi	r18,16
  14343c:	d8811f17 	ldw	r2,1148(sp)
  143440:	05400574 	movhi	r21,21
  143444:	ad445284 	addi	r21,r21,4426
  143448:	943fa50e 	bge	r18,r16,1432e0 <___vfprintf_internal_r+0xdac>
  14344c:	050001c4 	movi	r20,7
  143450:	dd812c17 	ldw	r22,1200(sp)
  143454:	00000306 	br	143464 <___vfprintf_internal_r+0xf30>
  143458:	42000204 	addi	r8,r8,8
  14345c:	843ffc04 	addi	r16,r16,-16
  143460:	943f9f0e 	bge	r18,r16,1432e0 <___vfprintf_internal_r+0xdac>
  143464:	18c00404 	addi	r3,r3,16
  143468:	10800044 	addi	r2,r2,1
  14346c:	44c00015 	stw	r19,0(r8)
  143470:	44800115 	stw	r18,4(r8)
  143474:	d8c12015 	stw	r3,1152(sp)
  143478:	d8811f15 	stw	r2,1148(sp)
  14347c:	a0bff60e 	bge	r20,r2,143458 <___vfprintf_internal_r+0xf24>
  143480:	b009883a 	mov	r4,r22
  143484:	b80b883a 	mov	r5,r23
  143488:	d9811e04 	addi	r6,sp,1144
  14348c:	014963c0 	call	14963c <__sprint_r>
  143490:	103e661e 	bne	r2,zero,142e2c <___vfprintf_internal_r+0x8f8>
  143494:	d8c12017 	ldw	r3,1152(sp)
  143498:	d8811f17 	ldw	r2,1148(sp)
  14349c:	da000404 	addi	r8,sp,16
  1434a0:	003fee06 	br	14345c <___vfprintf_internal_r+0xf28>
  1434a4:	da813017 	ldw	r10,1216(sp)
  1434a8:	d8812b17 	ldw	r2,1196(sp)
  1434ac:	50adc83a 	sub	r22,r10,r2
  1434b0:	05bd790e 	bge	zero,r22,142a98 <___vfprintf_internal_r+0x564>
  1434b4:	07000404 	movi	fp,16
  1434b8:	d8811f17 	ldw	r2,1148(sp)
  1434bc:	05400574 	movhi	r21,21
  1434c0:	ad445284 	addi	r21,r21,4426
  1434c4:	e580230e 	bge	fp,r22,143554 <___vfprintf_internal_r+0x1020>
  1434c8:	a809883a 	mov	r4,r21
  1434cc:	dc012d15 	stw	r16,1204(sp)
  1434d0:	882b883a 	mov	r21,r17
  1434d4:	01c001c4 	movi	r7,7
  1434d8:	b023883a 	mov	r17,r22
  1434dc:	dc012c17 	ldw	r16,1200(sp)
  1434e0:	202d883a 	mov	r22,r4
  1434e4:	00000306 	br	1434f4 <___vfprintf_internal_r+0xfc0>
  1434e8:	8c7ffc04 	addi	r17,r17,-16
  1434ec:	42000204 	addi	r8,r8,8
  1434f0:	e440130e 	bge	fp,r17,143540 <___vfprintf_internal_r+0x100c>
  1434f4:	18c00404 	addi	r3,r3,16
  1434f8:	10800044 	addi	r2,r2,1
  1434fc:	44c00015 	stw	r19,0(r8)
  143500:	47000115 	stw	fp,4(r8)
  143504:	d8c12015 	stw	r3,1152(sp)
  143508:	d8811f15 	stw	r2,1148(sp)
  14350c:	38bff60e 	bge	r7,r2,1434e8 <___vfprintf_internal_r+0xfb4>
  143510:	8009883a 	mov	r4,r16
  143514:	b80b883a 	mov	r5,r23
  143518:	d9811e04 	addi	r6,sp,1144
  14351c:	d9c13e15 	stw	r7,1272(sp)
  143520:	014963c0 	call	14963c <__sprint_r>
  143524:	d9c13e17 	ldw	r7,1272(sp)
  143528:	103e401e 	bne	r2,zero,142e2c <___vfprintf_internal_r+0x8f8>
  14352c:	8c7ffc04 	addi	r17,r17,-16
  143530:	d8c12017 	ldw	r3,1152(sp)
  143534:	d8811f17 	ldw	r2,1148(sp)
  143538:	da000404 	addi	r8,sp,16
  14353c:	e47fed16 	blt	fp,r17,1434f4 <___vfprintf_internal_r+0xfc0>
  143540:	dc012d17 	ldw	r16,1204(sp)
  143544:	b009883a 	mov	r4,r22
  143548:	882d883a 	mov	r22,r17
  14354c:	a823883a 	mov	r17,r21
  143550:	202b883a 	mov	r21,r4
  143554:	1d87883a 	add	r3,r3,r22
  143558:	10800044 	addi	r2,r2,1
  14355c:	45400015 	stw	r21,0(r8)
  143560:	45800115 	stw	r22,4(r8)
  143564:	d8c12015 	stw	r3,1152(sp)
  143568:	d8811f15 	stw	r2,1148(sp)
  14356c:	010001c4 	movi	r4,7
  143570:	20817a16 	blt	r4,r2,143b5c <___vfprintf_internal_r+0x1628>
  143574:	42000204 	addi	r8,r8,8
  143578:	003d4706 	br	142a98 <___vfprintf_internal_r+0x564>
  14357c:	da813517 	ldw	r10,1236(sp)
  143580:	00800044 	movi	r2,1
  143584:	1280350e 	bge	r2,r10,14365c <___vfprintf_internal_r+0x1128>
  143588:	dc811f17 	ldw	r18,1148(sp)
  14358c:	00800044 	movi	r2,1
  143590:	18c00044 	addi	r3,r3,1
  143594:	94800044 	addi	r18,r18,1
  143598:	40800115 	stw	r2,4(r8)
  14359c:	44000015 	stw	r16,0(r8)
  1435a0:	d8c12015 	stw	r3,1152(sp)
  1435a4:	dc811f15 	stw	r18,1148(sp)
  1435a8:	008001c4 	movi	r2,7
  1435ac:	14814e16 	blt	r2,r18,143ae8 <___vfprintf_internal_r+0x15b4>
  1435b0:	42000204 	addi	r8,r8,8
  1435b4:	da813817 	ldw	r10,1248(sp)
  1435b8:	94800044 	addi	r18,r18,1
  1435bc:	dc811f15 	stw	r18,1148(sp)
  1435c0:	1aad883a 	add	r22,r3,r10
  1435c4:	da813417 	ldw	r10,1232(sp)
  1435c8:	dd812015 	stw	r22,1152(sp)
  1435cc:	008001c4 	movi	r2,7
  1435d0:	42800015 	stw	r10,0(r8)
  1435d4:	da813817 	ldw	r10,1248(sp)
  1435d8:	42800115 	stw	r10,4(r8)
  1435dc:	14814b16 	blt	r2,r18,143b0c <___vfprintf_internal_r+0x15d8>
  1435e0:	45000204 	addi	r20,r8,8
  1435e4:	d9013717 	ldw	r4,1244(sp)
  1435e8:	d9413917 	ldw	r5,1252(sp)
  1435ec:	000d883a 	mov	r6,zero
  1435f0:	000f883a 	mov	r7,zero
  1435f4:	014d0b40 	call	14d0b4 <__eqdf2>
  1435f8:	da813517 	ldw	r10,1236(sp)
  1435fc:	1000cc26 	beq	r2,zero,143930 <___vfprintf_internal_r+0x13fc>
  143600:	50bfffc4 	addi	r2,r10,-1
  143604:	b0ad883a 	add	r22,r22,r2
  143608:	84000044 	addi	r16,r16,1
  14360c:	94800044 	addi	r18,r18,1
  143610:	a0800115 	stw	r2,4(r20)
  143614:	a4000015 	stw	r16,0(r20)
  143618:	dd812015 	stw	r22,1152(sp)
  14361c:	dc811f15 	stw	r18,1148(sp)
  143620:	008001c4 	movi	r2,7
  143624:	14801916 	blt	r2,r18,14368c <___vfprintf_internal_r+0x1158>
  143628:	a5000204 	addi	r20,r20,8
  14362c:	da813a17 	ldw	r10,1256(sp)
  143630:	d88122c4 	addi	r2,sp,1163
  143634:	94800044 	addi	r18,r18,1
  143638:	5587883a 	add	r3,r10,r22
  14363c:	a0800015 	stw	r2,0(r20)
  143640:	a2800115 	stw	r10,4(r20)
  143644:	d8c12015 	stw	r3,1152(sp)
  143648:	dc811f15 	stw	r18,1148(sp)
  14364c:	008001c4 	movi	r2,7
  143650:	14bf2b16 	blt	r2,r18,143300 <___vfprintf_internal_r+0xdcc>
  143654:	a2000204 	addi	r8,r20,8
  143658:	003d4d06 	br	142b90 <___vfprintf_internal_r+0x65c>
  14365c:	da812a17 	ldw	r10,1192(sp)
  143660:	5088703a 	and	r4,r10,r2
  143664:	203fc81e 	bne	r4,zero,143588 <___vfprintf_internal_r+0x1054>
  143668:	dc811f17 	ldw	r18,1148(sp)
  14366c:	1d800044 	addi	r22,r3,1
  143670:	40800115 	stw	r2,4(r8)
  143674:	94800044 	addi	r18,r18,1
  143678:	44000015 	stw	r16,0(r8)
  14367c:	dd812015 	stw	r22,1152(sp)
  143680:	dc811f15 	stw	r18,1148(sp)
  143684:	008001c4 	movi	r2,7
  143688:	1482480e 	bge	r2,r18,143fac <___vfprintf_internal_r+0x1a78>
  14368c:	d9012c17 	ldw	r4,1200(sp)
  143690:	b80b883a 	mov	r5,r23
  143694:	d9811e04 	addi	r6,sp,1144
  143698:	014963c0 	call	14963c <__sprint_r>
  14369c:	103de31e 	bne	r2,zero,142e2c <___vfprintf_internal_r+0x8f8>
  1436a0:	dd812017 	ldw	r22,1152(sp)
  1436a4:	dc811f17 	ldw	r18,1148(sp)
  1436a8:	dd000404 	addi	r20,sp,16
  1436ac:	003fdf06 	br	14362c <___vfprintf_internal_r+0x10f8>
  1436b0:	d9012c17 	ldw	r4,1200(sp)
  1436b4:	b80b883a 	mov	r5,r23
  1436b8:	d9811e04 	addi	r6,sp,1144
  1436bc:	014963c0 	call	14963c <__sprint_r>
  1436c0:	103d7026 	beq	r2,zero,142c84 <___vfprintf_internal_r+0x750>
  1436c4:	003dd906 	br	142e2c <___vfprintf_internal_r+0x8f8>
  1436c8:	d8c10dc4 	addi	r3,sp,1079
  1436cc:	a808d0fa 	srli	r4,r21,3
  1436d0:	b00a977a 	slli	r5,r22,29
  1436d4:	b02cd0fa 	srli	r22,r22,3
  1436d8:	ad4001cc 	andi	r21,r21,7
  1436dc:	a8800c04 	addi	r2,r21,48
  1436e0:	292ab03a 	or	r21,r5,r4
  1436e4:	18800005 	stb	r2,0(r3)
  1436e8:	ad88b03a 	or	r4,r21,r22
  1436ec:	1821883a 	mov	r16,r3
  1436f0:	18ffffc4 	addi	r3,r3,-1
  1436f4:	203ff51e 	bne	r4,zero,1436cc <___vfprintf_internal_r+0x1198>
  1436f8:	da812a17 	ldw	r10,1192(sp)
  1436fc:	800b883a 	mov	r5,r16
  143700:	5100004c 	andi	r4,r10,1
  143704:	20000726 	beq	r4,zero,143724 <___vfprintf_internal_r+0x11f0>
  143708:	10803fcc 	andi	r2,r2,255
  14370c:	1080201c 	xori	r2,r2,128
  143710:	10bfe004 	addi	r2,r2,-128
  143714:	01000c04 	movi	r4,48
  143718:	113f1426 	beq	r2,r4,14336c <___vfprintf_internal_r+0xe38>
  14371c:	1821883a 	mov	r16,r3
  143720:	293fffc5 	stb	r4,-1(r5)
  143724:	d8c12917 	ldw	r3,1188(sp)
  143728:	1c07c83a 	sub	r3,r3,r16
  14372c:	d8c12e15 	stw	r3,1208(sp)
  143730:	003c6c06 	br	1428e4 <___vfprintf_internal_r+0x3b0>
  143734:	d9012c17 	ldw	r4,1200(sp)
  143738:	b80b883a 	mov	r5,r23
  14373c:	d9811e04 	addi	r6,sp,1144
  143740:	014963c0 	call	14963c <__sprint_r>
  143744:	103db91e 	bne	r2,zero,142e2c <___vfprintf_internal_r+0x8f8>
  143748:	d8c12017 	ldw	r3,1152(sp)
  14374c:	da000404 	addi	r8,sp,16
  143750:	003d0106 	br	142b58 <___vfprintf_internal_r+0x624>
  143754:	d9012c17 	ldw	r4,1200(sp)
  143758:	b80b883a 	mov	r5,r23
  14375c:	d9811e04 	addi	r6,sp,1144
  143760:	014963c0 	call	14963c <__sprint_r>
  143764:	103db11e 	bne	r2,zero,142e2c <___vfprintf_internal_r+0x8f8>
  143768:	d8c12017 	ldw	r3,1152(sp)
  14376c:	da000404 	addi	r8,sp,16
  143770:	003cb806 	br	142a54 <___vfprintf_internal_r+0x520>
  143774:	d9012c17 	ldw	r4,1200(sp)
  143778:	b80b883a 	mov	r5,r23
  14377c:	d9811e04 	addi	r6,sp,1144
  143780:	014963c0 	call	14963c <__sprint_r>
  143784:	103da91e 	bne	r2,zero,142e2c <___vfprintf_internal_r+0x8f8>
  143788:	d8c12017 	ldw	r3,1152(sp)
  14378c:	da000404 	addi	r8,sp,16
  143790:	003cbe06 	br	142a8c <___vfprintf_internal_r+0x558>
  143794:	b000021e 	bne	r22,zero,1437a0 <___vfprintf_internal_r+0x126c>
  143798:	00800244 	movi	r2,9
  14379c:	15401c2e 	bgeu	r2,r21,143810 <___vfprintf_internal_r+0x12dc>
  1437a0:	dc412b15 	stw	r17,1196(sp)
  1437a4:	d8810dc4 	addi	r2,sp,1079
  1437a8:	b023883a 	mov	r17,r22
  1437ac:	402d883a 	mov	r22,r8
  1437b0:	a809883a 	mov	r4,r21
  1437b4:	880b883a 	mov	r5,r17
  1437b8:	01800284 	movi	r6,10
  1437bc:	000f883a 	mov	r7,zero
  1437c0:	1021883a 	mov	r16,r2
  1437c4:	014b8b80 	call	14b8b8 <__umoddi3>
  1437c8:	10800c04 	addi	r2,r2,48
  1437cc:	a809883a 	mov	r4,r21
  1437d0:	880b883a 	mov	r5,r17
  1437d4:	80800005 	stb	r2,0(r16)
  1437d8:	01800284 	movi	r6,10
  1437dc:	000f883a 	mov	r7,zero
  1437e0:	014b2f40 	call	14b2f4 <__udivdi3>
  1437e4:	1823883a 	mov	r17,r3
  1437e8:	10c6b03a 	or	r3,r2,r3
  1437ec:	102b883a 	mov	r21,r2
  1437f0:	80bfffc4 	addi	r2,r16,-1
  1437f4:	183fee1e 	bne	r3,zero,1437b0 <___vfprintf_internal_r+0x127c>
  1437f8:	d8c12917 	ldw	r3,1188(sp)
  1437fc:	b011883a 	mov	r8,r22
  143800:	dc412b17 	ldw	r17,1196(sp)
  143804:	1c07c83a 	sub	r3,r3,r16
  143808:	d8c12e15 	stw	r3,1208(sp)
  14380c:	003c3506 	br	1428e4 <___vfprintf_internal_r+0x3b0>
  143810:	da813d17 	ldw	r10,1268(sp)
  143814:	ad400c04 	addi	r21,r21,48
  143818:	dd410dc5 	stb	r21,1079(sp)
  14381c:	da812e15 	stw	r10,1208(sp)
  143820:	dc010dc4 	addi	r16,sp,1079
  143824:	003c2f06 	br	1428e4 <___vfprintf_internal_r+0x3b0>
  143828:	d8012e15 	stw	zero,1208(sp)
  14382c:	dc010e04 	addi	r16,sp,1080
  143830:	003c2c06 	br	1428e4 <___vfprintf_internal_r+0x3b0>
  143834:	d8812617 	ldw	r2,1176(sp)
  143838:	0081860e 	bge	zero,r2,143e54 <___vfprintf_internal_r+0x1920>
  14383c:	da813517 	ldw	r10,1236(sp)
  143840:	82a5883a 	add	r18,r16,r10
  143844:	da813317 	ldw	r10,1228(sp)
  143848:	9429c83a 	sub	r20,r18,r16
  14384c:	5500010e 	bge	r10,r20,143854 <___vfprintf_internal_r+0x1320>
  143850:	5029883a 	mov	r20,r10
  143854:	05000a0e 	bge	zero,r20,143880 <___vfprintf_internal_r+0x134c>
  143858:	d8811f17 	ldw	r2,1148(sp)
  14385c:	1d07883a 	add	r3,r3,r20
  143860:	44000015 	stw	r16,0(r8)
  143864:	10800044 	addi	r2,r2,1
  143868:	45000115 	stw	r20,4(r8)
  14386c:	d8c12015 	stw	r3,1152(sp)
  143870:	d8811f15 	stw	r2,1148(sp)
  143874:	010001c4 	movi	r4,7
  143878:	2081fb16 	blt	r4,r2,144068 <___vfprintf_internal_r+0x1b34>
  14387c:	42000204 	addi	r8,r8,8
  143880:	a001f716 	blt	r20,zero,144060 <___vfprintf_internal_r+0x1b2c>
  143884:	da813317 	ldw	r10,1228(sp)
  143888:	5529c83a 	sub	r20,r10,r20
  14388c:	0500520e 	bge	zero,r20,1439d8 <___vfprintf_internal_r+0x14a4>
  143890:	05800404 	movi	r22,16
  143894:	d8811f17 	ldw	r2,1148(sp)
  143898:	05400574 	movhi	r21,21
  14389c:	ad445284 	addi	r21,r21,4426
  1438a0:	b5015a0e 	bge	r22,r20,143e0c <___vfprintf_internal_r+0x18d8>
  1438a4:	8809883a 	mov	r4,r17
  1438a8:	dc012e15 	stw	r16,1208(sp)
  1438ac:	a023883a 	mov	r17,r20
  1438b0:	070001c4 	movi	fp,7
  1438b4:	dc012c17 	ldw	r16,1200(sp)
  1438b8:	2029883a 	mov	r20,r4
  1438bc:	00000306 	br	1438cc <___vfprintf_internal_r+0x1398>
  1438c0:	42000204 	addi	r8,r8,8
  1438c4:	8c7ffc04 	addi	r17,r17,-16
  1438c8:	b4414c0e 	bge	r22,r17,143dfc <___vfprintf_internal_r+0x18c8>
  1438cc:	18c00404 	addi	r3,r3,16
  1438d0:	10800044 	addi	r2,r2,1
  1438d4:	44c00015 	stw	r19,0(r8)
  1438d8:	45800115 	stw	r22,4(r8)
  1438dc:	d8c12015 	stw	r3,1152(sp)
  1438e0:	d8811f15 	stw	r2,1148(sp)
  1438e4:	e0bff60e 	bge	fp,r2,1438c0 <___vfprintf_internal_r+0x138c>
  1438e8:	8009883a 	mov	r4,r16
  1438ec:	b80b883a 	mov	r5,r23
  1438f0:	d9811e04 	addi	r6,sp,1144
  1438f4:	014963c0 	call	14963c <__sprint_r>
  1438f8:	103d4c1e 	bne	r2,zero,142e2c <___vfprintf_internal_r+0x8f8>
  1438fc:	d8c12017 	ldw	r3,1152(sp)
  143900:	d8811f17 	ldw	r2,1148(sp)
  143904:	da000404 	addi	r8,sp,16
  143908:	003fee06 	br	1438c4 <___vfprintf_internal_r+0x1390>
  14390c:	d9012c17 	ldw	r4,1200(sp)
  143910:	b80b883a 	mov	r5,r23
  143914:	d9811e04 	addi	r6,sp,1144
  143918:	014963c0 	call	14963c <__sprint_r>
  14391c:	103d431e 	bne	r2,zero,142e2c <___vfprintf_internal_r+0x8f8>
  143920:	d8c12017 	ldw	r3,1152(sp)
  143924:	d8812787 	ldb	r2,1182(sp)
  143928:	da000404 	addi	r8,sp,16
  14392c:	003c3c06 	br	142a20 <___vfprintf_internal_r+0x4ec>
  143930:	543fffc4 	addi	r16,r10,-1
  143934:	043f3d0e 	bge	zero,r16,14362c <___vfprintf_internal_r+0x10f8>
  143938:	07000404 	movi	fp,16
  14393c:	05400574 	movhi	r21,21
  143940:	ad445284 	addi	r21,r21,4426
  143944:	e4007c0e 	bge	fp,r16,143b38 <___vfprintf_internal_r+0x1604>
  143948:	dc412e15 	stw	r17,1208(sp)
  14394c:	00c001c4 	movi	r3,7
  143950:	8023883a 	mov	r17,r16
  143954:	dc012c17 	ldw	r16,1200(sp)
  143958:	00000306 	br	143968 <___vfprintf_internal_r+0x1434>
  14395c:	a5000204 	addi	r20,r20,8
  143960:	8c7ffc04 	addi	r17,r17,-16
  143964:	e440720e 	bge	fp,r17,143b30 <___vfprintf_internal_r+0x15fc>
  143968:	b5800404 	addi	r22,r22,16
  14396c:	94800044 	addi	r18,r18,1
  143970:	a4c00015 	stw	r19,0(r20)
  143974:	a7000115 	stw	fp,4(r20)
  143978:	dd812015 	stw	r22,1152(sp)
  14397c:	dc811f15 	stw	r18,1148(sp)
  143980:	1cbff60e 	bge	r3,r18,14395c <___vfprintf_internal_r+0x1428>
  143984:	8009883a 	mov	r4,r16
  143988:	b80b883a 	mov	r5,r23
  14398c:	d9811e04 	addi	r6,sp,1144
  143990:	d8c13e15 	stw	r3,1272(sp)
  143994:	014963c0 	call	14963c <__sprint_r>
  143998:	d8c13e17 	ldw	r3,1272(sp)
  14399c:	103d231e 	bne	r2,zero,142e2c <___vfprintf_internal_r+0x8f8>
  1439a0:	dd812017 	ldw	r22,1152(sp)
  1439a4:	dc811f17 	ldw	r18,1148(sp)
  1439a8:	dd000404 	addi	r20,sp,16
  1439ac:	003fec06 	br	143960 <___vfprintf_internal_r+0x142c>
  1439b0:	00c00084 	movi	r3,2
  1439b4:	ad84b03a 	or	r2,r21,r22
  1439b8:	003cc506 	br	142cd0 <___vfprintf_internal_r+0x79c>
  1439bc:	d9012c17 	ldw	r4,1200(sp)
  1439c0:	b80b883a 	mov	r5,r23
  1439c4:	d9811e04 	addi	r6,sp,1144
  1439c8:	014963c0 	call	14963c <__sprint_r>
  1439cc:	103d171e 	bne	r2,zero,142e2c <___vfprintf_internal_r+0x8f8>
  1439d0:	d8c12017 	ldw	r3,1152(sp)
  1439d4:	da000404 	addi	r8,sp,16
  1439d8:	da813317 	ldw	r10,1228(sp)
  1439dc:	d8812617 	ldw	r2,1176(sp)
  1439e0:	82a1883a 	add	r16,r16,r10
  1439e4:	da813517 	ldw	r10,1236(sp)
  1439e8:	12800316 	blt	r2,r10,1439f8 <___vfprintf_internal_r+0x14c4>
  1439ec:	da812a17 	ldw	r10,1192(sp)
  1439f0:	5100004c 	andi	r4,r10,1
  1439f4:	20000d26 	beq	r4,zero,143a2c <___vfprintf_internal_r+0x14f8>
  1439f8:	da813817 	ldw	r10,1248(sp)
  1439fc:	d9011f17 	ldw	r4,1148(sp)
  143a00:	014001c4 	movi	r5,7
  143a04:	1a87883a 	add	r3,r3,r10
  143a08:	da813417 	ldw	r10,1232(sp)
  143a0c:	21000044 	addi	r4,r4,1
  143a10:	d8c12015 	stw	r3,1152(sp)
  143a14:	42800015 	stw	r10,0(r8)
  143a18:	da813817 	ldw	r10,1248(sp)
  143a1c:	d9011f15 	stw	r4,1148(sp)
  143a20:	42800115 	stw	r10,4(r8)
  143a24:	2901a216 	blt	r5,r4,1440b0 <___vfprintf_internal_r+0x1b7c>
  143a28:	42000204 	addi	r8,r8,8
  143a2c:	da813517 	ldw	r10,1236(sp)
  143a30:	9425c83a 	sub	r18,r18,r16
  143a34:	5085c83a 	sub	r2,r10,r2
  143a38:	1029883a 	mov	r20,r2
  143a3c:	9080010e 	bge	r18,r2,143a44 <___vfprintf_internal_r+0x1510>
  143a40:	9029883a 	mov	r20,r18
  143a44:	05000a0e 	bge	zero,r20,143a70 <___vfprintf_internal_r+0x153c>
  143a48:	d9011f17 	ldw	r4,1148(sp)
  143a4c:	1d07883a 	add	r3,r3,r20
  143a50:	44000015 	stw	r16,0(r8)
  143a54:	21000044 	addi	r4,r4,1
  143a58:	45000115 	stw	r20,4(r8)
  143a5c:	d8c12015 	stw	r3,1152(sp)
  143a60:	d9011f15 	stw	r4,1148(sp)
  143a64:	014001c4 	movi	r5,7
  143a68:	29019c16 	blt	r5,r4,1440dc <___vfprintf_internal_r+0x1ba8>
  143a6c:	42000204 	addi	r8,r8,8
  143a70:	a0019816 	blt	r20,zero,1440d4 <___vfprintf_internal_r+0x1ba0>
  143a74:	1521c83a 	sub	r16,r2,r20
  143a78:	043c450e 	bge	zero,r16,142b90 <___vfprintf_internal_r+0x65c>
  143a7c:	04800404 	movi	r18,16
  143a80:	d8811f17 	ldw	r2,1148(sp)
  143a84:	05400574 	movhi	r21,21
  143a88:	ad445284 	addi	r21,r21,4426
  143a8c:	943e140e 	bge	r18,r16,1432e0 <___vfprintf_internal_r+0xdac>
  143a90:	050001c4 	movi	r20,7
  143a94:	dd812c17 	ldw	r22,1200(sp)
  143a98:	00000306 	br	143aa8 <___vfprintf_internal_r+0x1574>
  143a9c:	42000204 	addi	r8,r8,8
  143aa0:	843ffc04 	addi	r16,r16,-16
  143aa4:	943e0e0e 	bge	r18,r16,1432e0 <___vfprintf_internal_r+0xdac>
  143aa8:	18c00404 	addi	r3,r3,16
  143aac:	10800044 	addi	r2,r2,1
  143ab0:	44c00015 	stw	r19,0(r8)
  143ab4:	44800115 	stw	r18,4(r8)
  143ab8:	d8c12015 	stw	r3,1152(sp)
  143abc:	d8811f15 	stw	r2,1148(sp)
  143ac0:	a0bff60e 	bge	r20,r2,143a9c <___vfprintf_internal_r+0x1568>
  143ac4:	b009883a 	mov	r4,r22
  143ac8:	b80b883a 	mov	r5,r23
  143acc:	d9811e04 	addi	r6,sp,1144
  143ad0:	014963c0 	call	14963c <__sprint_r>
  143ad4:	103cd51e 	bne	r2,zero,142e2c <___vfprintf_internal_r+0x8f8>
  143ad8:	d8c12017 	ldw	r3,1152(sp)
  143adc:	d8811f17 	ldw	r2,1148(sp)
  143ae0:	da000404 	addi	r8,sp,16
  143ae4:	003fee06 	br	143aa0 <___vfprintf_internal_r+0x156c>
  143ae8:	d9012c17 	ldw	r4,1200(sp)
  143aec:	b80b883a 	mov	r5,r23
  143af0:	d9811e04 	addi	r6,sp,1144
  143af4:	014963c0 	call	14963c <__sprint_r>
  143af8:	103ccc1e 	bne	r2,zero,142e2c <___vfprintf_internal_r+0x8f8>
  143afc:	d8c12017 	ldw	r3,1152(sp)
  143b00:	dc811f17 	ldw	r18,1148(sp)
  143b04:	da000404 	addi	r8,sp,16
  143b08:	003eaa06 	br	1435b4 <___vfprintf_internal_r+0x1080>
  143b0c:	d9012c17 	ldw	r4,1200(sp)
  143b10:	b80b883a 	mov	r5,r23
  143b14:	d9811e04 	addi	r6,sp,1144
  143b18:	014963c0 	call	14963c <__sprint_r>
  143b1c:	103cc31e 	bne	r2,zero,142e2c <___vfprintf_internal_r+0x8f8>
  143b20:	dd812017 	ldw	r22,1152(sp)
  143b24:	dc811f17 	ldw	r18,1148(sp)
  143b28:	dd000404 	addi	r20,sp,16
  143b2c:	003ead06 	br	1435e4 <___vfprintf_internal_r+0x10b0>
  143b30:	8821883a 	mov	r16,r17
  143b34:	dc412e17 	ldw	r17,1208(sp)
  143b38:	b42d883a 	add	r22,r22,r16
  143b3c:	94800044 	addi	r18,r18,1
  143b40:	a5400015 	stw	r21,0(r20)
  143b44:	a4000115 	stw	r16,4(r20)
  143b48:	dd812015 	stw	r22,1152(sp)
  143b4c:	dc811f15 	stw	r18,1148(sp)
  143b50:	008001c4 	movi	r2,7
  143b54:	14beb40e 	bge	r2,r18,143628 <___vfprintf_internal_r+0x10f4>
  143b58:	003ecc06 	br	14368c <___vfprintf_internal_r+0x1158>
  143b5c:	d9012c17 	ldw	r4,1200(sp)
  143b60:	b80b883a 	mov	r5,r23
  143b64:	d9811e04 	addi	r6,sp,1144
  143b68:	014963c0 	call	14963c <__sprint_r>
  143b6c:	103caf1e 	bne	r2,zero,142e2c <___vfprintf_internal_r+0x8f8>
  143b70:	d8c12017 	ldw	r3,1152(sp)
  143b74:	da000404 	addi	r8,sp,16
  143b78:	003bc706 	br	142a98 <___vfprintf_internal_r+0x564>
  143b7c:	056bc83a 	sub	r21,zero,r21
  143b80:	a804c03a 	cmpne	r2,r21,zero
  143b84:	05adc83a 	sub	r22,zero,r22
  143b88:	07000b44 	movi	fp,45
  143b8c:	b0adc83a 	sub	r22,r22,r2
  143b90:	df012785 	stb	fp,1182(sp)
  143b94:	00c00044 	movi	r3,1
  143b98:	ad84b03a 	or	r2,r21,r22
  143b9c:	003b4006 	br	1428a0 <___vfprintf_internal_r+0x36c>
  143ba0:	da013f15 	stw	r8,1276(sp)
  143ba4:	01492940 	call	149294 <__fpclassifyd>
  143ba8:	da013f17 	ldw	r8,1276(sp)
  143bac:	1000e826 	beq	r2,zero,143f50 <___vfprintf_internal_r+0x1a1c>
  143bb0:	05bff7c4 	movi	r22,-33
  143bb4:	00bfffc4 	movi	r2,-1
  143bb8:	95ac703a 	and	r22,r18,r22
  143bbc:	a081d626 	beq	r20,r2,144318 <___vfprintf_internal_r+0x1de4>
  143bc0:	008011c4 	movi	r2,71
  143bc4:	b081d126 	beq	r22,r2,14430c <___vfprintf_internal_r+0x1dd8>
  143bc8:	d8c12a17 	ldw	r3,1192(sp)
  143bcc:	da813917 	ldw	r10,1252(sp)
  143bd0:	18c04014 	ori	r3,r3,256
  143bd4:	d8c12d15 	stw	r3,1204(sp)
  143bd8:	5001d116 	blt	r10,zero,144320 <___vfprintf_internal_r+0x1dec>
  143bdc:	dd413917 	ldw	r21,1252(sp)
  143be0:	d8012b05 	stb	zero,1196(sp)
  143be4:	00801984 	movi	r2,102
  143be8:	90816926 	beq	r18,r2,144190 <___vfprintf_internal_r+0x1c5c>
  143bec:	00801184 	movi	r2,70
  143bf0:	90816726 	beq	r18,r2,144190 <___vfprintf_internal_r+0x1c5c>
  143bf4:	00801144 	movi	r2,69
  143bf8:	b081cd26 	beq	r22,r2,144330 <___vfprintf_internal_r+0x1dfc>
  143bfc:	a039883a 	mov	fp,r20
  143c00:	d8812604 	addi	r2,sp,1176
  143c04:	d8800115 	stw	r2,4(sp)
  143c08:	d9012c17 	ldw	r4,1200(sp)
  143c0c:	d8812504 	addi	r2,sp,1172
  143c10:	d9413717 	ldw	r5,1244(sp)
  143c14:	d8800215 	stw	r2,8(sp)
  143c18:	d8812104 	addi	r2,sp,1156
  143c1c:	df000015 	stw	fp,0(sp)
  143c20:	d8800315 	stw	r2,12(sp)
  143c24:	a80d883a 	mov	r6,r21
  143c28:	01c00084 	movi	r7,2
  143c2c:	da013f15 	stw	r8,1276(sp)
  143c30:	01448700 	call	144870 <_dtoa_r>
  143c34:	1021883a 	mov	r16,r2
  143c38:	008019c4 	movi	r2,103
  143c3c:	da013f17 	ldw	r8,1276(sp)
  143c40:	90800226 	beq	r18,r2,143c4c <___vfprintf_internal_r+0x1718>
  143c44:	008011c4 	movi	r2,71
  143c48:	9080031e 	bne	r18,r2,143c58 <___vfprintf_internal_r+0x1724>
  143c4c:	da812a17 	ldw	r10,1192(sp)
  143c50:	5080004c 	andi	r2,r10,1
  143c54:	1001e926 	beq	r2,zero,1443fc <___vfprintf_internal_r+0x1ec8>
  143c58:	00801184 	movi	r2,70
  143c5c:	8713883a 	add	r9,r16,fp
  143c60:	b0815e26 	beq	r22,r2,1441dc <___vfprintf_internal_r+0x1ca8>
  143c64:	d9013717 	ldw	r4,1244(sp)
  143c68:	a80b883a 	mov	r5,r21
  143c6c:	000d883a 	mov	r6,zero
  143c70:	000f883a 	mov	r7,zero
  143c74:	da013f15 	stw	r8,1276(sp)
  143c78:	da413e15 	stw	r9,1272(sp)
  143c7c:	014d0b40 	call	14d0b4 <__eqdf2>
  143c80:	da013f17 	ldw	r8,1276(sp)
  143c84:	da413e17 	ldw	r9,1272(sp)
  143c88:	10015226 	beq	r2,zero,1441d4 <___vfprintf_internal_r+0x1ca0>
  143c8c:	d8812117 	ldw	r2,1156(sp)
  143c90:	1240062e 	bgeu	r2,r9,143cac <___vfprintf_internal_r+0x1778>
  143c94:	01000c04 	movi	r4,48
  143c98:	10c00044 	addi	r3,r2,1
  143c9c:	d8c12115 	stw	r3,1156(sp)
  143ca0:	11000005 	stb	r4,0(r2)
  143ca4:	d8812117 	ldw	r2,1156(sp)
  143ca8:	127ffb36 	bltu	r2,r9,143c98 <___vfprintf_internal_r+0x1764>
  143cac:	1405c83a 	sub	r2,r2,r16
  143cb0:	d8813515 	stw	r2,1236(sp)
  143cb4:	008011c4 	movi	r2,71
  143cb8:	b0812c26 	beq	r22,r2,14416c <___vfprintf_internal_r+0x1c38>
  143cbc:	00801944 	movi	r2,101
  143cc0:	1482060e 	bge	r2,r18,1444dc <___vfprintf_internal_r+0x1fa8>
  143cc4:	00801984 	movi	r2,102
  143cc8:	9081ce26 	beq	r18,r2,144404 <___vfprintf_internal_r+0x1ed0>
  143ccc:	da812617 	ldw	r10,1176(sp)
  143cd0:	da813315 	stw	r10,1228(sp)
  143cd4:	d8c13317 	ldw	r3,1228(sp)
  143cd8:	da813517 	ldw	r10,1236(sp)
  143cdc:	1a819616 	blt	r3,r10,144338 <___vfprintf_internal_r+0x1e04>
  143ce0:	da812a17 	ldw	r10,1192(sp)
  143ce4:	5080004c 	andi	r2,r10,1
  143ce8:	10019c1e 	bne	r2,zero,14435c <___vfprintf_internal_r+0x1e28>
  143cec:	1805883a 	mov	r2,r3
  143cf0:	18020516 	blt	r3,zero,144508 <___vfprintf_internal_r+0x1fd4>
  143cf4:	d8c13317 	ldw	r3,1228(sp)
  143cf8:	048019c4 	movi	r18,103
  143cfc:	d8c12e15 	stw	r3,1208(sp)
  143d00:	df012b07 	ldb	fp,1196(sp)
  143d04:	e001111e 	bne	fp,zero,14414c <___vfprintf_internal_r+0x1c18>
  143d08:	d8c12d17 	ldw	r3,1204(sp)
  143d0c:	df012783 	ldbu	fp,1182(sp)
  143d10:	d8812b15 	stw	r2,1196(sp)
  143d14:	d8c12a15 	stw	r3,1192(sp)
  143d18:	0029883a 	mov	r20,zero
  143d1c:	003af606 	br	1428f8 <___vfprintf_internal_r+0x3c4>
  143d20:	da812a17 	ldw	r10,1192(sp)
  143d24:	5080040c 	andi	r2,r10,16
  143d28:	10000a1e 	bne	r2,zero,143d54 <___vfprintf_internal_r+0x1820>
  143d2c:	da812a17 	ldw	r10,1192(sp)
  143d30:	5080100c 	andi	r2,r10,64
  143d34:	10000726 	beq	r2,zero,143d54 <___vfprintf_internal_r+0x1820>
  143d38:	da812f17 	ldw	r10,1212(sp)
  143d3c:	50800017 	ldw	r2,0(r10)
  143d40:	52800104 	addi	r10,r10,4
  143d44:	da812f15 	stw	r10,1212(sp)
  143d48:	da813117 	ldw	r10,1220(sp)
  143d4c:	1280000d 	sth	r10,0(r2)
  143d50:	003a3706 	br	142630 <___vfprintf_internal_r+0xfc>
  143d54:	da812f17 	ldw	r10,1212(sp)
  143d58:	50800017 	ldw	r2,0(r10)
  143d5c:	52800104 	addi	r10,r10,4
  143d60:	da812f15 	stw	r10,1212(sp)
  143d64:	da813117 	ldw	r10,1220(sp)
  143d68:	12800015 	stw	r10,0(r2)
  143d6c:	003a3006 	br	142630 <___vfprintf_internal_r+0xfc>
  143d70:	8c800007 	ldb	r18,0(r17)
  143d74:	003a5506 	br	1426cc <___vfprintf_internal_r+0x198>
  143d78:	da812a17 	ldw	r10,1192(sp)
  143d7c:	5080100c 	andi	r2,r10,64
  143d80:	da812f17 	ldw	r10,1212(sp)
  143d84:	10008126 	beq	r2,zero,143f8c <___vfprintf_internal_r+0x1a58>
  143d88:	5540000b 	ldhu	r21,0(r10)
  143d8c:	52800104 	addi	r10,r10,4
  143d90:	002d883a 	mov	r22,zero
  143d94:	da812f15 	stw	r10,1212(sp)
  143d98:	003caa06 	br	143044 <___vfprintf_internal_r+0xb10>
  143d9c:	00c00084 	movi	r3,2
  143da0:	003bcb06 	br	142cd0 <___vfprintf_internal_r+0x79c>
  143da4:	da812a17 	ldw	r10,1192(sp)
  143da8:	5080100c 	andi	r2,r10,64
  143dac:	da812f17 	ldw	r10,1212(sp)
  143db0:	103ab326 	beq	r2,zero,142880 <___vfprintf_internal_r+0x34c>
  143db4:	5540000b 	ldhu	r21,0(r10)
  143db8:	003ab206 	br	142884 <___vfprintf_internal_r+0x350>
  143dbc:	da812a17 	ldw	r10,1192(sp)
  143dc0:	5080100c 	andi	r2,r10,64
  143dc4:	da812f17 	ldw	r10,1212(sp)
  143dc8:	103c2426 	beq	r2,zero,142e5c <___vfprintf_internal_r+0x928>
  143dcc:	5540000b 	ldhu	r21,0(r10)
  143dd0:	003c2306 	br	142e60 <___vfprintf_internal_r+0x92c>
  143dd4:	da812a17 	ldw	r10,1192(sp)
  143dd8:	5080100c 	andi	r2,r10,64
  143ddc:	da812f17 	ldw	r10,1212(sp)
  143de0:	103cbc26 	beq	r2,zero,1430d4 <___vfprintf_internal_r+0xba0>
  143de4:	5540000f 	ldh	r21,0(r10)
  143de8:	52800104 	addi	r10,r10,4
  143dec:	da812f15 	stw	r10,1212(sp)
  143df0:	a82dd7fa 	srai	r22,r21,31
  143df4:	b005883a 	mov	r2,r22
  143df8:	003c5a06 	br	142f64 <___vfprintf_internal_r+0xa30>
  143dfc:	dc012e17 	ldw	r16,1208(sp)
  143e00:	a009883a 	mov	r4,r20
  143e04:	8829883a 	mov	r20,r17
  143e08:	2023883a 	mov	r17,r4
  143e0c:	1d07883a 	add	r3,r3,r20
  143e10:	10800044 	addi	r2,r2,1
  143e14:	45400015 	stw	r21,0(r8)
  143e18:	45000115 	stw	r20,4(r8)
  143e1c:	d8c12015 	stw	r3,1152(sp)
  143e20:	d8811f15 	stw	r2,1148(sp)
  143e24:	010001c4 	movi	r4,7
  143e28:	20bee416 	blt	r4,r2,1439bc <___vfprintf_internal_r+0x1488>
  143e2c:	42000204 	addi	r8,r8,8
  143e30:	003ee906 	br	1439d8 <___vfprintf_internal_r+0x14a4>
  143e34:	d9012c17 	ldw	r4,1200(sp)
  143e38:	b80b883a 	mov	r5,r23
  143e3c:	d9811e04 	addi	r6,sp,1144
  143e40:	014963c0 	call	14963c <__sprint_r>
  143e44:	103bf91e 	bne	r2,zero,142e2c <___vfprintf_internal_r+0x8f8>
  143e48:	d8c12017 	ldw	r3,1152(sp)
  143e4c:	da000404 	addi	r8,sp,16
  143e50:	003d6306 	br	1433e0 <___vfprintf_internal_r+0xeac>
  143e54:	d9011f17 	ldw	r4,1148(sp)
  143e58:	01400574 	movhi	r5,21
  143e5c:	29445204 	addi	r5,r5,4424
  143e60:	18c00044 	addi	r3,r3,1
  143e64:	21000044 	addi	r4,r4,1
  143e68:	41400015 	stw	r5,0(r8)
  143e6c:	01400044 	movi	r5,1
  143e70:	41400115 	stw	r5,4(r8)
  143e74:	d8c12015 	stw	r3,1152(sp)
  143e78:	d9011f15 	stw	r4,1148(sp)
  143e7c:	014001c4 	movi	r5,7
  143e80:	29004c16 	blt	r5,r4,143fb4 <___vfprintf_internal_r+0x1a80>
  143e84:	42000204 	addi	r8,r8,8
  143e88:	1025883a 	mov	r18,r2
  143e8c:	9000051e 	bne	r18,zero,143ea4 <___vfprintf_internal_r+0x1970>
  143e90:	da813517 	ldw	r10,1236(sp)
  143e94:	5000031e 	bne	r10,zero,143ea4 <___vfprintf_internal_r+0x1970>
  143e98:	da812a17 	ldw	r10,1192(sp)
  143e9c:	5080004c 	andi	r2,r10,1
  143ea0:	103b3b26 	beq	r2,zero,142b90 <___vfprintf_internal_r+0x65c>
  143ea4:	da813817 	ldw	r10,1248(sp)
  143ea8:	d8811f17 	ldw	r2,1148(sp)
  143eac:	010001c4 	movi	r4,7
  143eb0:	1a87883a 	add	r3,r3,r10
  143eb4:	da813417 	ldw	r10,1232(sp)
  143eb8:	10800044 	addi	r2,r2,1
  143ebc:	d8c12015 	stw	r3,1152(sp)
  143ec0:	42800015 	stw	r10,0(r8)
  143ec4:	da813817 	ldw	r10,1248(sp)
  143ec8:	d8811f15 	stw	r2,1148(sp)
  143ecc:	42800115 	stw	r10,4(r8)
  143ed0:	20810416 	blt	r4,r2,1442e4 <___vfprintf_internal_r+0x1db0>
  143ed4:	42000204 	addi	r8,r8,8
  143ed8:	04a5c83a 	sub	r18,zero,r18
  143edc:	0480540e 	bge	zero,r18,144030 <___vfprintf_internal_r+0x1afc>
  143ee0:	05000404 	movi	r20,16
  143ee4:	05400574 	movhi	r21,21
  143ee8:	ad445284 	addi	r21,r21,4426
  143eec:	a480660e 	bge	r20,r18,144088 <___vfprintf_internal_r+0x1b54>
  143ef0:	058001c4 	movi	r22,7
  143ef4:	df012c17 	ldw	fp,1200(sp)
  143ef8:	00000306 	br	143f08 <___vfprintf_internal_r+0x19d4>
  143efc:	42000204 	addi	r8,r8,8
  143f00:	94bffc04 	addi	r18,r18,-16
  143f04:	a480600e 	bge	r20,r18,144088 <___vfprintf_internal_r+0x1b54>
  143f08:	18c00404 	addi	r3,r3,16
  143f0c:	10800044 	addi	r2,r2,1
  143f10:	44c00015 	stw	r19,0(r8)
  143f14:	45000115 	stw	r20,4(r8)
  143f18:	d8c12015 	stw	r3,1152(sp)
  143f1c:	d8811f15 	stw	r2,1148(sp)
  143f20:	b0bff60e 	bge	r22,r2,143efc <___vfprintf_internal_r+0x19c8>
  143f24:	e009883a 	mov	r4,fp
  143f28:	b80b883a 	mov	r5,r23
  143f2c:	d9811e04 	addi	r6,sp,1144
  143f30:	014963c0 	call	14963c <__sprint_r>
  143f34:	103bbd1e 	bne	r2,zero,142e2c <___vfprintf_internal_r+0x8f8>
  143f38:	d8c12017 	ldw	r3,1152(sp)
  143f3c:	d8811f17 	ldw	r2,1148(sp)
  143f40:	da000404 	addi	r8,sp,16
  143f44:	003fee06 	br	143f00 <___vfprintf_internal_r+0x19cc>
  143f48:	dd012e15 	stw	r20,1208(sp)
  143f4c:	003cb006 	br	143210 <___vfprintf_internal_r+0xcdc>
  143f50:	008011c4 	movi	r2,71
  143f54:	14808b16 	blt	r2,r18,144184 <___vfprintf_internal_r+0x1c50>
  143f58:	04000574 	movhi	r16,21
  143f5c:	84044404 	addi	r16,r16,4368
  143f60:	da812a17 	ldw	r10,1192(sp)
  143f64:	00bfdfc4 	movi	r2,-129
  143f68:	00c000c4 	movi	r3,3
  143f6c:	5094703a 	and	r10,r10,r2
  143f70:	d8c12b15 	stw	r3,1196(sp)
  143f74:	da812a15 	stw	r10,1192(sp)
  143f78:	df012783 	ldbu	fp,1182(sp)
  143f7c:	d8c12e15 	stw	r3,1208(sp)
  143f80:	0029883a 	mov	r20,zero
  143f84:	d8013315 	stw	zero,1228(sp)
  143f88:	003a5b06 	br	1428f8 <___vfprintf_internal_r+0x3c4>
  143f8c:	55400017 	ldw	r21,0(r10)
  143f90:	52800104 	addi	r10,r10,4
  143f94:	002d883a 	mov	r22,zero
  143f98:	da812f15 	stw	r10,1212(sp)
  143f9c:	003c2906 	br	143044 <___vfprintf_internal_r+0xb10>
  143fa0:	04000574 	movhi	r16,21
  143fa4:	84044204 	addi	r16,r16,4360
  143fa8:	003c1006 	br	142fec <___vfprintf_internal_r+0xab8>
  143fac:	45000204 	addi	r20,r8,8
  143fb0:	003d9e06 	br	14362c <___vfprintf_internal_r+0x10f8>
  143fb4:	d9012c17 	ldw	r4,1200(sp)
  143fb8:	b80b883a 	mov	r5,r23
  143fbc:	d9811e04 	addi	r6,sp,1144
  143fc0:	014963c0 	call	14963c <__sprint_r>
  143fc4:	103b991e 	bne	r2,zero,142e2c <___vfprintf_internal_r+0x8f8>
  143fc8:	dc812617 	ldw	r18,1176(sp)
  143fcc:	d8c12017 	ldw	r3,1152(sp)
  143fd0:	da000404 	addi	r8,sp,16
  143fd4:	003fad06 	br	143e8c <___vfprintf_internal_r+0x1958>
  143fd8:	da812a17 	ldw	r10,1192(sp)
  143fdc:	8c400044 	addi	r17,r17,1
  143fe0:	14800047 	ldb	r18,1(r2)
  143fe4:	52800814 	ori	r10,r10,32
  143fe8:	da812a15 	stw	r10,1192(sp)
  143fec:	0039b706 	br	1426cc <___vfprintf_internal_r+0x198>
  143ff0:	d9012c17 	ldw	r4,1200(sp)
  143ff4:	b80b883a 	mov	r5,r23
  143ff8:	d9811e04 	addi	r6,sp,1144
  143ffc:	014963c0 	call	14963c <__sprint_r>
  144000:	103b8a1e 	bne	r2,zero,142e2c <___vfprintf_internal_r+0x8f8>
  144004:	d8c12017 	ldw	r3,1152(sp)
  144008:	da000404 	addi	r8,sp,16
  14400c:	003d0706 	br	14342c <___vfprintf_internal_r+0xef8>
  144010:	d9012c17 	ldw	r4,1200(sp)
  144014:	b80b883a 	mov	r5,r23
  144018:	d9811e04 	addi	r6,sp,1144
  14401c:	014963c0 	call	14963c <__sprint_r>
  144020:	103b821e 	bne	r2,zero,142e2c <___vfprintf_internal_r+0x8f8>
  144024:	d8c12017 	ldw	r3,1152(sp)
  144028:	d8811f17 	ldw	r2,1148(sp)
  14402c:	da000404 	addi	r8,sp,16
  144030:	da813517 	ldw	r10,1236(sp)
  144034:	10800044 	addi	r2,r2,1
  144038:	44000015 	stw	r16,0(r8)
  14403c:	50c7883a 	add	r3,r10,r3
  144040:	003acd06 	br	142b78 <___vfprintf_internal_r+0x644>
  144044:	da013f15 	stw	r8,1276(sp)
  144048:	01424a80 	call	1424a8 <strlen>
  14404c:	d8812e15 	stw	r2,1208(sp)
  144050:	da013f17 	ldw	r8,1276(sp)
  144054:	103c700e 	bge	r2,zero,143218 <___vfprintf_internal_r+0xce4>
  144058:	0005883a 	mov	r2,zero
  14405c:	003c6e06 	br	143218 <___vfprintf_internal_r+0xce4>
  144060:	0029883a 	mov	r20,zero
  144064:	003e0706 	br	143884 <___vfprintf_internal_r+0x1350>
  144068:	d9012c17 	ldw	r4,1200(sp)
  14406c:	b80b883a 	mov	r5,r23
  144070:	d9811e04 	addi	r6,sp,1144
  144074:	014963c0 	call	14963c <__sprint_r>
  144078:	103b6c1e 	bne	r2,zero,142e2c <___vfprintf_internal_r+0x8f8>
  14407c:	d8c12017 	ldw	r3,1152(sp)
  144080:	da000404 	addi	r8,sp,16
  144084:	003dfe06 	br	143880 <___vfprintf_internal_r+0x134c>
  144088:	1c87883a 	add	r3,r3,r18
  14408c:	10800044 	addi	r2,r2,1
  144090:	45400015 	stw	r21,0(r8)
  144094:	44800115 	stw	r18,4(r8)
  144098:	d8c12015 	stw	r3,1152(sp)
  14409c:	d8811f15 	stw	r2,1148(sp)
  1440a0:	010001c4 	movi	r4,7
  1440a4:	20bfda16 	blt	r4,r2,144010 <___vfprintf_internal_r+0x1adc>
  1440a8:	42000204 	addi	r8,r8,8
  1440ac:	003fe006 	br	144030 <___vfprintf_internal_r+0x1afc>
  1440b0:	d9012c17 	ldw	r4,1200(sp)
  1440b4:	b80b883a 	mov	r5,r23
  1440b8:	d9811e04 	addi	r6,sp,1144
  1440bc:	014963c0 	call	14963c <__sprint_r>
  1440c0:	103b5a1e 	bne	r2,zero,142e2c <___vfprintf_internal_r+0x8f8>
  1440c4:	d8812617 	ldw	r2,1176(sp)
  1440c8:	d8c12017 	ldw	r3,1152(sp)
  1440cc:	da000404 	addi	r8,sp,16
  1440d0:	003e5606 	br	143a2c <___vfprintf_internal_r+0x14f8>
  1440d4:	0029883a 	mov	r20,zero
  1440d8:	003e6606 	br	143a74 <___vfprintf_internal_r+0x1540>
  1440dc:	d9012c17 	ldw	r4,1200(sp)
  1440e0:	b80b883a 	mov	r5,r23
  1440e4:	d9811e04 	addi	r6,sp,1144
  1440e8:	014963c0 	call	14963c <__sprint_r>
  1440ec:	103b4f1e 	bne	r2,zero,142e2c <___vfprintf_internal_r+0x8f8>
  1440f0:	d8812617 	ldw	r2,1176(sp)
  1440f4:	da813517 	ldw	r10,1236(sp)
  1440f8:	d8c12017 	ldw	r3,1152(sp)
  1440fc:	da000404 	addi	r8,sp,16
  144100:	5085c83a 	sub	r2,r10,r2
  144104:	003e5a06 	br	143a70 <___vfprintf_internal_r+0x153c>
  144108:	00800184 	movi	r2,6
  14410c:	1500012e 	bgeu	r2,r20,144114 <___vfprintf_internal_r+0x1be0>
  144110:	1029883a 	mov	r20,r2
  144114:	dd012e15 	stw	r20,1208(sp)
  144118:	a005883a 	mov	r2,r20
  14411c:	a000c516 	blt	r20,zero,144434 <___vfprintf_internal_r+0x1f00>
  144120:	d8812b15 	stw	r2,1196(sp)
  144124:	dd412f15 	stw	r21,1212(sp)
  144128:	0029883a 	mov	r20,zero
  14412c:	d8013315 	stw	zero,1228(sp)
  144130:	04000574 	movhi	r16,21
  144134:	84045004 	addi	r16,r16,4416
  144138:	0005883a 	mov	r2,zero
  14413c:	0039f506 	br	142914 <___vfprintf_internal_r+0x3e0>
  144140:	07000b44 	movi	fp,45
  144144:	df012785 	stb	fp,1182(sp)
  144148:	003ba406 	br	142fdc <___vfprintf_internal_r+0xaa8>
  14414c:	da812d17 	ldw	r10,1204(sp)
  144150:	00c00b44 	movi	r3,45
  144154:	d8812b15 	stw	r2,1196(sp)
  144158:	d8c12785 	stb	r3,1182(sp)
  14415c:	da812a15 	stw	r10,1192(sp)
  144160:	0029883a 	mov	r20,zero
  144164:	00800b44 	movi	r2,45
  144168:	0039e706 	br	142908 <___vfprintf_internal_r+0x3d4>
  14416c:	d8812617 	ldw	r2,1176(sp)
  144170:	00ffff44 	movi	r3,-3
  144174:	10c02e16 	blt	r2,r3,144230 <___vfprintf_internal_r+0x1cfc>
  144178:	a0802d16 	blt	r20,r2,144230 <___vfprintf_internal_r+0x1cfc>
  14417c:	d8813315 	stw	r2,1228(sp)
  144180:	003ed406 	br	143cd4 <___vfprintf_internal_r+0x17a0>
  144184:	04000574 	movhi	r16,21
  144188:	84044504 	addi	r16,r16,4372
  14418c:	003f7406 	br	143f60 <___vfprintf_internal_r+0x1a2c>
  144190:	d8812604 	addi	r2,sp,1176
  144194:	d8800115 	stw	r2,4(sp)
  144198:	d9012c17 	ldw	r4,1200(sp)
  14419c:	d8812504 	addi	r2,sp,1172
  1441a0:	d9413717 	ldw	r5,1244(sp)
  1441a4:	d8800215 	stw	r2,8(sp)
  1441a8:	d8812104 	addi	r2,sp,1156
  1441ac:	dd000015 	stw	r20,0(sp)
  1441b0:	d8800315 	stw	r2,12(sp)
  1441b4:	a80d883a 	mov	r6,r21
  1441b8:	01c000c4 	movi	r7,3
  1441bc:	da013f15 	stw	r8,1276(sp)
  1441c0:	01448700 	call	144870 <_dtoa_r>
  1441c4:	1021883a 	mov	r16,r2
  1441c8:	a039883a 	mov	fp,r20
  1441cc:	da013f17 	ldw	r8,1276(sp)
  1441d0:	003ea106 	br	143c58 <___vfprintf_internal_r+0x1724>
  1441d4:	4805883a 	mov	r2,r9
  1441d8:	003eb406 	br	143cac <___vfprintf_internal_r+0x1778>
  1441dc:	81000007 	ldb	r4,0(r16)
  1441e0:	00800c04 	movi	r2,48
  1441e4:	20800326 	beq	r4,r2,1441f4 <___vfprintf_internal_r+0x1cc0>
  1441e8:	d8c12617 	ldw	r3,1176(sp)
  1441ec:	48d3883a 	add	r9,r9,r3
  1441f0:	003e9c06 	br	143c64 <___vfprintf_internal_r+0x1730>
  1441f4:	d9013717 	ldw	r4,1244(sp)
  1441f8:	a80b883a 	mov	r5,r21
  1441fc:	000d883a 	mov	r6,zero
  144200:	000f883a 	mov	r7,zero
  144204:	da013f15 	stw	r8,1276(sp)
  144208:	da413e15 	stw	r9,1272(sp)
  14420c:	014d0b40 	call	14d0b4 <__eqdf2>
  144210:	da013f17 	ldw	r8,1276(sp)
  144214:	da413e17 	ldw	r9,1272(sp)
  144218:	103ff326 	beq	r2,zero,1441e8 <___vfprintf_internal_r+0x1cb4>
  14421c:	00800044 	movi	r2,1
  144220:	1707c83a 	sub	r3,r2,fp
  144224:	d8c12615 	stw	r3,1176(sp)
  144228:	48d3883a 	add	r9,r9,r3
  14422c:	003e8d06 	br	143c64 <___vfprintf_internal_r+0x1730>
  144230:	94bfff84 	addi	r18,r18,-2
  144234:	157fffc4 	addi	r21,r2,-1
  144238:	dd412615 	stw	r21,1176(sp)
  14423c:	dc8122c5 	stb	r18,1163(sp)
  144240:	a8008916 	blt	r21,zero,144468 <___vfprintf_internal_r+0x1f34>
  144244:	00800ac4 	movi	r2,43
  144248:	d8812305 	stb	r2,1164(sp)
  14424c:	05000244 	movi	r20,9
  144250:	a5404a16 	blt	r20,r21,14437c <___vfprintf_internal_r+0x1e48>
  144254:	00800c04 	movi	r2,48
  144258:	ad400c04 	addi	r21,r21,48
  14425c:	d8812345 	stb	r2,1165(sp)
  144260:	dd412385 	stb	r21,1166(sp)
  144264:	d8c123c4 	addi	r3,sp,1167
  144268:	d88122c4 	addi	r2,sp,1163
  14426c:	da813517 	ldw	r10,1236(sp)
  144270:	1885c83a 	sub	r2,r3,r2
  144274:	d8813a15 	stw	r2,1256(sp)
  144278:	5095883a 	add	r10,r10,r2
  14427c:	da812e15 	stw	r10,1208(sp)
  144280:	da813517 	ldw	r10,1236(sp)
  144284:	00800044 	movi	r2,1
  144288:	1280070e 	bge	r2,r10,1442a8 <___vfprintf_internal_r+0x1d74>
  14428c:	d8c12e17 	ldw	r3,1208(sp)
  144290:	18c00044 	addi	r3,r3,1
  144294:	d8c12e15 	stw	r3,1208(sp)
  144298:	1805883a 	mov	r2,r3
  14429c:	18000716 	blt	r3,zero,1442bc <___vfprintf_internal_r+0x1d88>
  1442a0:	d8013315 	stw	zero,1228(sp)
  1442a4:	003e9606 	br	143d00 <___vfprintf_internal_r+0x17cc>
  1442a8:	da812a17 	ldw	r10,1192(sp)
  1442ac:	5084703a 	and	r2,r10,r2
  1442b0:	103ff61e 	bne	r2,zero,14428c <___vfprintf_internal_r+0x1d58>
  1442b4:	d8812e17 	ldw	r2,1208(sp)
  1442b8:	103ff90e 	bge	r2,zero,1442a0 <___vfprintf_internal_r+0x1d6c>
  1442bc:	0005883a 	mov	r2,zero
  1442c0:	d8013315 	stw	zero,1228(sp)
  1442c4:	003e8e06 	br	143d00 <___vfprintf_internal_r+0x17cc>
  1442c8:	dd012b15 	stw	r20,1196(sp)
  1442cc:	dd012e15 	stw	r20,1208(sp)
  1442d0:	df012783 	ldbu	fp,1182(sp)
  1442d4:	dd412f15 	stw	r21,1212(sp)
  1442d8:	0029883a 	mov	r20,zero
  1442dc:	d8013315 	stw	zero,1228(sp)
  1442e0:	00398506 	br	1428f8 <___vfprintf_internal_r+0x3c4>
  1442e4:	d9012c17 	ldw	r4,1200(sp)
  1442e8:	b80b883a 	mov	r5,r23
  1442ec:	d9811e04 	addi	r6,sp,1144
  1442f0:	014963c0 	call	14963c <__sprint_r>
  1442f4:	103acd1e 	bne	r2,zero,142e2c <___vfprintf_internal_r+0x8f8>
  1442f8:	dc812617 	ldw	r18,1176(sp)
  1442fc:	d8c12017 	ldw	r3,1152(sp)
  144300:	d8811f17 	ldw	r2,1148(sp)
  144304:	da000404 	addi	r8,sp,16
  144308:	003ef306 	br	143ed8 <___vfprintf_internal_r+0x19a4>
  14430c:	a03e2e1e 	bne	r20,zero,143bc8 <___vfprintf_internal_r+0x1694>
  144310:	8029883a 	mov	r20,r16
  144314:	003e2c06 	br	143bc8 <___vfprintf_internal_r+0x1694>
  144318:	05000184 	movi	r20,6
  14431c:	003e2a06 	br	143bc8 <___vfprintf_internal_r+0x1694>
  144320:	00c00b44 	movi	r3,45
  144324:	5560003c 	xorhi	r21,r10,32768
  144328:	d8c12b05 	stb	r3,1196(sp)
  14432c:	003e2d06 	br	143be4 <___vfprintf_internal_r+0x16b0>
  144330:	a7000044 	addi	fp,r20,1
  144334:	003e3206 	br	143c00 <___vfprintf_internal_r+0x16cc>
  144338:	d8c13317 	ldw	r3,1228(sp)
  14433c:	00c0470e 	bge	zero,r3,14445c <___vfprintf_internal_r+0x1f28>
  144340:	00800044 	movi	r2,1
  144344:	da813517 	ldw	r10,1236(sp)
  144348:	1285883a 	add	r2,r2,r10
  14434c:	d8812e15 	stw	r2,1208(sp)
  144350:	10000716 	blt	r2,zero,144370 <___vfprintf_internal_r+0x1e3c>
  144354:	048019c4 	movi	r18,103
  144358:	003e6906 	br	143d00 <___vfprintf_internal_r+0x17cc>
  14435c:	da813317 	ldw	r10,1228(sp)
  144360:	52800044 	addi	r10,r10,1
  144364:	da812e15 	stw	r10,1208(sp)
  144368:	5005883a 	mov	r2,r10
  14436c:	503ff90e 	bge	r10,zero,144354 <___vfprintf_internal_r+0x1e20>
  144370:	0005883a 	mov	r2,zero
  144374:	048019c4 	movi	r18,103
  144378:	003e6106 	br	143d00 <___vfprintf_internal_r+0x17cc>
  14437c:	d8c12284 	addi	r3,sp,1162
  144380:	4039883a 	mov	fp,r8
  144384:	a809883a 	mov	r4,r21
  144388:	01400284 	movi	r5,10
  14438c:	182d883a 	mov	r22,r3
  144390:	014bf080 	call	14bf08 <__modsi3>
  144394:	10800c04 	addi	r2,r2,48
  144398:	a809883a 	mov	r4,r21
  14439c:	b0800005 	stb	r2,0(r22)
  1443a0:	01400284 	movi	r5,10
  1443a4:	014bec00 	call	14bec0 <__divsi3>
  1443a8:	102b883a 	mov	r21,r2
  1443ac:	b0ffffc4 	addi	r3,r22,-1
  1443b0:	a0bff416 	blt	r20,r2,144384 <___vfprintf_internal_r+0x1e50>
  1443b4:	11400c04 	addi	r5,r2,48
  1443b8:	b17fffc5 	stb	r5,-1(r22)
  1443bc:	d88122c4 	addi	r2,sp,1163
  1443c0:	e011883a 	mov	r8,fp
  1443c4:	18804e2e 	bgeu	r3,r2,144500 <___vfprintf_internal_r+0x1fcc>
  1443c8:	d9012344 	addi	r4,sp,1165
  1443cc:	b007883a 	mov	r3,r22
  1443d0:	00000206 	br	1443dc <___vfprintf_internal_r+0x1ea8>
  1443d4:	19400003 	ldbu	r5,0(r3)
  1443d8:	18c00044 	addi	r3,r3,1
  1443dc:	21400005 	stb	r5,0(r4)
  1443e0:	21000044 	addi	r4,r4,1
  1443e4:	10fffb1e 	bne	r2,r3,1443d4 <___vfprintf_internal_r+0x1ea0>
  1443e8:	d8c12304 	addi	r3,sp,1164
  1443ec:	1d87c83a 	sub	r3,r3,r22
  1443f0:	d9012344 	addi	r4,sp,1165
  1443f4:	20c7883a 	add	r3,r4,r3
  1443f8:	003f9c06 	br	14426c <___vfprintf_internal_r+0x1d38>
  1443fc:	d8812117 	ldw	r2,1156(sp)
  144400:	003e2a06 	br	143cac <___vfprintf_internal_r+0x1778>
  144404:	d8c12617 	ldw	r3,1176(sp)
  144408:	d8c13315 	stw	r3,1228(sp)
  14440c:	00c01a0e 	bge	zero,r3,144478 <___vfprintf_internal_r+0x1f44>
  144410:	a0000a1e 	bne	r20,zero,14443c <___vfprintf_internal_r+0x1f08>
  144414:	da812a17 	ldw	r10,1192(sp)
  144418:	5080004c 	andi	r2,r10,1
  14441c:	1000071e 	bne	r2,zero,14443c <___vfprintf_internal_r+0x1f08>
  144420:	1805883a 	mov	r2,r3
  144424:	18002f16 	blt	r3,zero,1444e4 <___vfprintf_internal_r+0x1fb0>
  144428:	d8c13317 	ldw	r3,1228(sp)
  14442c:	d8c12e15 	stw	r3,1208(sp)
  144430:	003e3306 	br	143d00 <___vfprintf_internal_r+0x17cc>
  144434:	0005883a 	mov	r2,zero
  144438:	003f3906 	br	144120 <___vfprintf_internal_r+0x1bec>
  14443c:	da813317 	ldw	r10,1228(sp)
  144440:	a5000044 	addi	r20,r20,1
  144444:	5529883a 	add	r20,r10,r20
  144448:	dd012e15 	stw	r20,1208(sp)
  14444c:	a005883a 	mov	r2,r20
  144450:	a03e2b0e 	bge	r20,zero,143d00 <___vfprintf_internal_r+0x17cc>
  144454:	0005883a 	mov	r2,zero
  144458:	003e2906 	br	143d00 <___vfprintf_internal_r+0x17cc>
  14445c:	00800084 	movi	r2,2
  144460:	10c5c83a 	sub	r2,r2,r3
  144464:	003fb706 	br	144344 <___vfprintf_internal_r+0x1e10>
  144468:	00800b44 	movi	r2,45
  14446c:	056bc83a 	sub	r21,zero,r21
  144470:	d8812305 	stb	r2,1164(sp)
  144474:	003f7506 	br	14424c <___vfprintf_internal_r+0x1d18>
  144478:	a000111e 	bne	r20,zero,1444c0 <___vfprintf_internal_r+0x1f8c>
  14447c:	da812a17 	ldw	r10,1192(sp)
  144480:	5080004c 	andi	r2,r10,1
  144484:	10000e1e 	bne	r2,zero,1444c0 <___vfprintf_internal_r+0x1f8c>
  144488:	00800044 	movi	r2,1
  14448c:	d8812e15 	stw	r2,1208(sp)
  144490:	003e1b06 	br	143d00 <___vfprintf_internal_r+0x17cc>
  144494:	da812f17 	ldw	r10,1212(sp)
  144498:	8c800043 	ldbu	r18,1(r17)
  14449c:	2823883a 	mov	r17,r5
  1444a0:	55000017 	ldw	r20,0(r10)
  1444a4:	50800104 	addi	r2,r10,4
  1444a8:	d8812f15 	stw	r2,1212(sp)
  1444ac:	a0000f16 	blt	r20,zero,1444ec <___vfprintf_internal_r+0x1fb8>
  1444b0:	94803fcc 	andi	r18,r18,255
  1444b4:	9480201c 	xori	r18,r18,128
  1444b8:	94bfe004 	addi	r18,r18,-128
  1444bc:	00388306 	br	1426cc <___vfprintf_internal_r+0x198>
  1444c0:	a5000084 	addi	r20,r20,2
  1444c4:	dd012e15 	stw	r20,1208(sp)
  1444c8:	a005883a 	mov	r2,r20
  1444cc:	a03e0c0e 	bge	r20,zero,143d00 <___vfprintf_internal_r+0x17cc>
  1444d0:	003fe006 	br	144454 <___vfprintf_internal_r+0x1f20>
  1444d4:	043fffc4 	movi	r16,-1
  1444d8:	003a3206 	br	142da4 <___vfprintf_internal_r+0x870>
  1444dc:	d8812617 	ldw	r2,1176(sp)
  1444e0:	003f5406 	br	144234 <___vfprintf_internal_r+0x1d00>
  1444e4:	0005883a 	mov	r2,zero
  1444e8:	003fcf06 	br	144428 <___vfprintf_internal_r+0x1ef4>
  1444ec:	94803fcc 	andi	r18,r18,255
  1444f0:	9480201c 	xori	r18,r18,128
  1444f4:	053fffc4 	movi	r20,-1
  1444f8:	94bfe004 	addi	r18,r18,-128
  1444fc:	00387306 	br	1426cc <___vfprintf_internal_r+0x198>
  144500:	d8c12344 	addi	r3,sp,1165
  144504:	003f5906 	br	14426c <___vfprintf_internal_r+0x1d38>
  144508:	0005883a 	mov	r2,zero
  14450c:	003df906 	br	143cf4 <___vfprintf_internal_r+0x17c0>

00144510 <__vfprintf_internal>:
  144510:	00800574 	movhi	r2,21
  144514:	108bab04 	addi	r2,r2,11948
  144518:	2007883a 	mov	r3,r4
  14451c:	11000017 	ldw	r4,0(r2)
  144520:	2805883a 	mov	r2,r5
  144524:	300f883a 	mov	r7,r6
  144528:	180b883a 	mov	r5,r3
  14452c:	100d883a 	mov	r6,r2
  144530:	01425341 	jmpi	142534 <___vfprintf_internal_r>

00144534 <__swsetup_r>:
  144534:	00800574 	movhi	r2,21
  144538:	108bab04 	addi	r2,r2,11948
  14453c:	10800017 	ldw	r2,0(r2)
  144540:	defffd04 	addi	sp,sp,-12
  144544:	dc400115 	stw	r17,4(sp)
  144548:	dc000015 	stw	r16,0(sp)
  14454c:	dfc00215 	stw	ra,8(sp)
  144550:	2023883a 	mov	r17,r4
  144554:	2821883a 	mov	r16,r5
  144558:	10000226 	beq	r2,zero,144564 <__swsetup_r+0x30>
  14455c:	10c00e17 	ldw	r3,56(r2)
  144560:	18002e26 	beq	r3,zero,14461c <__swsetup_r+0xe8>
  144564:	8080030b 	ldhu	r2,12(r16)
  144568:	10c0020c 	andi	r3,r2,8
  14456c:	100d883a 	mov	r6,r2
  144570:	18000f26 	beq	r3,zero,1445b0 <__swsetup_r+0x7c>
  144574:	80c00417 	ldw	r3,16(r16)
  144578:	18001526 	beq	r3,zero,1445d0 <__swsetup_r+0x9c>
  14457c:	1100004c 	andi	r4,r2,1
  144580:	20001c1e 	bne	r4,zero,1445f4 <__swsetup_r+0xc0>
  144584:	1080008c 	andi	r2,r2,2
  144588:	1000271e 	bne	r2,zero,144628 <__swsetup_r+0xf4>
  14458c:	80800517 	ldw	r2,20(r16)
  144590:	80800215 	stw	r2,8(r16)
  144594:	18001c26 	beq	r3,zero,144608 <__swsetup_r+0xd4>
  144598:	0005883a 	mov	r2,zero
  14459c:	dfc00217 	ldw	ra,8(sp)
  1445a0:	dc400117 	ldw	r17,4(sp)
  1445a4:	dc000017 	ldw	r16,0(sp)
  1445a8:	dec00304 	addi	sp,sp,12
  1445ac:	f800283a 	ret
  1445b0:	3080040c 	andi	r2,r6,16
  1445b4:	10001726 	beq	r2,zero,144614 <__swsetup_r+0xe0>
  1445b8:	3080010c 	andi	r2,r6,4
  1445bc:	10001d1e 	bne	r2,zero,144634 <__swsetup_r+0x100>
  1445c0:	80c00417 	ldw	r3,16(r16)
  1445c4:	30800214 	ori	r2,r6,8
  1445c8:	8080030d 	sth	r2,12(r16)
  1445cc:	183feb1e 	bne	r3,zero,14457c <__swsetup_r+0x48>
  1445d0:	1140a00c 	andi	r5,r2,640
  1445d4:	01008004 	movi	r4,512
  1445d8:	293fe826 	beq	r5,r4,14457c <__swsetup_r+0x48>
  1445dc:	8809883a 	mov	r4,r17
  1445e0:	800b883a 	mov	r5,r16
  1445e4:	0146f9c0 	call	146f9c <__smakebuf_r>
  1445e8:	8080030b 	ldhu	r2,12(r16)
  1445ec:	80c00417 	ldw	r3,16(r16)
  1445f0:	003fe206 	br	14457c <__swsetup_r+0x48>
  1445f4:	80800517 	ldw	r2,20(r16)
  1445f8:	80000215 	stw	zero,8(r16)
  1445fc:	0085c83a 	sub	r2,zero,r2
  144600:	80800615 	stw	r2,24(r16)
  144604:	183fe41e 	bne	r3,zero,144598 <__swsetup_r+0x64>
  144608:	8080030b 	ldhu	r2,12(r16)
  14460c:	1080200c 	andi	r2,r2,128
  144610:	103fe226 	beq	r2,zero,14459c <__swsetup_r+0x68>
  144614:	00bfffc4 	movi	r2,-1
  144618:	003fe006 	br	14459c <__swsetup_r+0x68>
  14461c:	1009883a 	mov	r4,r2
  144620:	01461b80 	call	1461b8 <__sinit>
  144624:	003fcf06 	br	144564 <__swsetup_r+0x30>
  144628:	0005883a 	mov	r2,zero
  14462c:	80800215 	stw	r2,8(r16)
  144630:	003fd806 	br	144594 <__swsetup_r+0x60>
  144634:	81400c17 	ldw	r5,48(r16)
  144638:	28000626 	beq	r5,zero,144654 <__swsetup_r+0x120>
  14463c:	80801004 	addi	r2,r16,64
  144640:	28800326 	beq	r5,r2,144650 <__swsetup_r+0x11c>
  144644:	8809883a 	mov	r4,r17
  144648:	01465ec0 	call	1465ec <_free_r>
  14464c:	8180030b 	ldhu	r6,12(r16)
  144650:	80000c15 	stw	zero,48(r16)
  144654:	80c00417 	ldw	r3,16(r16)
  144658:	00bff6c4 	movi	r2,-37
  14465c:	118c703a 	and	r6,r2,r6
  144660:	80000115 	stw	zero,4(r16)
  144664:	80c00015 	stw	r3,0(r16)
  144668:	003fd606 	br	1445c4 <__swsetup_r+0x90>

0014466c <quorem>:
  14466c:	defff704 	addi	sp,sp,-36
  144670:	dc000015 	stw	r16,0(sp)
  144674:	20800417 	ldw	r2,16(r4)
  144678:	2c000417 	ldw	r16,16(r5)
  14467c:	dd800615 	stw	r22,24(sp)
  144680:	dd400515 	stw	r21,20(sp)
  144684:	dfc00815 	stw	ra,32(sp)
  144688:	ddc00715 	stw	r23,28(sp)
  14468c:	dd000415 	stw	r20,16(sp)
  144690:	dcc00315 	stw	r19,12(sp)
  144694:	dc800215 	stw	r18,8(sp)
  144698:	dc400115 	stw	r17,4(sp)
  14469c:	202b883a 	mov	r21,r4
  1446a0:	282d883a 	mov	r22,r5
  1446a4:	14007016 	blt	r2,r16,144868 <quorem+0x1fc>
  1446a8:	843fffc4 	addi	r16,r16,-1
  1446ac:	842f883a 	add	r23,r16,r16
  1446b0:	bdef883a 	add	r23,r23,r23
  1446b4:	2c400504 	addi	r17,r5,20
  1446b8:	8de5883a 	add	r18,r17,r23
  1446bc:	25000504 	addi	r20,r4,20
  1446c0:	a5ef883a 	add	r23,r20,r23
  1446c4:	91400017 	ldw	r5,0(r18)
  1446c8:	b9000017 	ldw	r4,0(r23)
  1446cc:	29400044 	addi	r5,r5,1
  1446d0:	014bf540 	call	14bf54 <__udivsi3>
  1446d4:	1027883a 	mov	r19,r2
  1446d8:	10002c26 	beq	r2,zero,14478c <quorem+0x120>
  1446dc:	a00f883a 	mov	r7,r20
  1446e0:	880d883a 	mov	r6,r17
  1446e4:	0013883a 	mov	r9,zero
  1446e8:	0011883a 	mov	r8,zero
  1446ec:	30800017 	ldw	r2,0(r6)
  1446f0:	3ac00017 	ldw	r11,0(r7)
  1446f4:	31800104 	addi	r6,r6,4
  1446f8:	10ffffcc 	andi	r3,r2,65535
  1446fc:	1cc7383a 	mul	r3,r3,r19
  144700:	1004d43a 	srli	r2,r2,16
  144704:	5abfffcc 	andi	r10,r11,65535
  144708:	48c7883a 	add	r3,r9,r3
  14470c:	1812d43a 	srli	r9,r3,16
  144710:	14c5383a 	mul	r2,r2,r19
  144714:	5211883a 	add	r8,r10,r8
  144718:	18ffffcc 	andi	r3,r3,65535
  14471c:	40d5c83a 	sub	r10,r8,r3
  144720:	5810d43a 	srli	r8,r11,16
  144724:	4893883a 	add	r9,r9,r2
  144728:	5005d43a 	srai	r2,r10,16
  14472c:	48ffffcc 	andi	r3,r9,65535
  144730:	40d1c83a 	sub	r8,r8,r3
  144734:	4091883a 	add	r8,r8,r2
  144738:	4004943a 	slli	r2,r8,16
  14473c:	52bfffcc 	andi	r10,r10,65535
  144740:	4812d43a 	srli	r9,r9,16
  144744:	1294b03a 	or	r10,r2,r10
  144748:	3a800015 	stw	r10,0(r7)
  14474c:	4011d43a 	srai	r8,r8,16
  144750:	39c00104 	addi	r7,r7,4
  144754:	91bfe52e 	bgeu	r18,r6,1446ec <quorem+0x80>
  144758:	b8800017 	ldw	r2,0(r23)
  14475c:	10000b1e 	bne	r2,zero,14478c <quorem+0x120>
  144760:	b8bfff04 	addi	r2,r23,-4
  144764:	a080082e 	bgeu	r20,r2,144788 <quorem+0x11c>
  144768:	b8ffff17 	ldw	r3,-4(r23)
  14476c:	18000326 	beq	r3,zero,14477c <quorem+0x110>
  144770:	00000506 	br	144788 <quorem+0x11c>
  144774:	10c00017 	ldw	r3,0(r2)
  144778:	1800031e 	bne	r3,zero,144788 <quorem+0x11c>
  14477c:	10bfff04 	addi	r2,r2,-4
  144780:	843fffc4 	addi	r16,r16,-1
  144784:	a0bffb36 	bltu	r20,r2,144774 <quorem+0x108>
  144788:	ac000415 	stw	r16,16(r21)
  14478c:	a809883a 	mov	r4,r21
  144790:	b00b883a 	mov	r5,r22
  144794:	014850c0 	call	14850c <__mcmp>
  144798:	10002716 	blt	r2,zero,144838 <quorem+0x1cc>
  14479c:	9cc00044 	addi	r19,r19,1
  1447a0:	a00b883a 	mov	r5,r20
  1447a4:	8807883a 	mov	r3,r17
  1447a8:	000d883a 	mov	r6,zero
  1447ac:	2a400017 	ldw	r9,0(r5)
  1447b0:	1a000017 	ldw	r8,0(r3)
  1447b4:	29400104 	addi	r5,r5,4
  1447b8:	49ffffcc 	andi	r7,r9,65535
  1447bc:	40bfffcc 	andi	r2,r8,65535
  1447c0:	398d883a 	add	r6,r7,r6
  1447c4:	308fc83a 	sub	r7,r6,r2
  1447c8:	4010d43a 	srli	r8,r8,16
  1447cc:	480cd43a 	srli	r6,r9,16
  1447d0:	3805d43a 	srai	r2,r7,16
  1447d4:	39ffffcc 	andi	r7,r7,65535
  1447d8:	320dc83a 	sub	r6,r6,r8
  1447dc:	308d883a 	add	r6,r6,r2
  1447e0:	3004943a 	slli	r2,r6,16
  1447e4:	18c00104 	addi	r3,r3,4
  1447e8:	300dd43a 	srai	r6,r6,16
  1447ec:	11ceb03a 	or	r7,r2,r7
  1447f0:	29ffff15 	stw	r7,-4(r5)
  1447f4:	90ffed2e 	bgeu	r18,r3,1447ac <quorem+0x140>
  1447f8:	8405883a 	add	r2,r16,r16
  1447fc:	1085883a 	add	r2,r2,r2
  144800:	a087883a 	add	r3,r20,r2
  144804:	18800017 	ldw	r2,0(r3)
  144808:	10000b1e 	bne	r2,zero,144838 <quorem+0x1cc>
  14480c:	18bfff04 	addi	r2,r3,-4
  144810:	a080082e 	bgeu	r20,r2,144834 <quorem+0x1c8>
  144814:	18ffff17 	ldw	r3,-4(r3)
  144818:	18000326 	beq	r3,zero,144828 <quorem+0x1bc>
  14481c:	00000506 	br	144834 <quorem+0x1c8>
  144820:	10c00017 	ldw	r3,0(r2)
  144824:	1800031e 	bne	r3,zero,144834 <quorem+0x1c8>
  144828:	10bfff04 	addi	r2,r2,-4
  14482c:	843fffc4 	addi	r16,r16,-1
  144830:	a0bffb36 	bltu	r20,r2,144820 <quorem+0x1b4>
  144834:	ac000415 	stw	r16,16(r21)
  144838:	9805883a 	mov	r2,r19
  14483c:	dfc00817 	ldw	ra,32(sp)
  144840:	ddc00717 	ldw	r23,28(sp)
  144844:	dd800617 	ldw	r22,24(sp)
  144848:	dd400517 	ldw	r21,20(sp)
  14484c:	dd000417 	ldw	r20,16(sp)
  144850:	dcc00317 	ldw	r19,12(sp)
  144854:	dc800217 	ldw	r18,8(sp)
  144858:	dc400117 	ldw	r17,4(sp)
  14485c:	dc000017 	ldw	r16,0(sp)
  144860:	dec00904 	addi	sp,sp,36
  144864:	f800283a 	ret
  144868:	0005883a 	mov	r2,zero
  14486c:	003ff306 	br	14483c <quorem+0x1d0>

00144870 <_dtoa_r>:
  144870:	20801017 	ldw	r2,64(r4)
  144874:	deffdf04 	addi	sp,sp,-132
  144878:	dcc01a15 	stw	r19,104(sp)
  14487c:	dc801915 	stw	r18,100(sp)
  144880:	dc401815 	stw	r17,96(sp)
  144884:	dc001715 	stw	r16,92(sp)
  144888:	dfc02015 	stw	ra,128(sp)
  14488c:	df001f15 	stw	fp,124(sp)
  144890:	ddc01e15 	stw	r23,120(sp)
  144894:	dd801d15 	stw	r22,116(sp)
  144898:	dd401c15 	stw	r21,112(sp)
  14489c:	dd001b15 	stw	r20,108(sp)
  1448a0:	d9400315 	stw	r5,12(sp)
  1448a4:	d9c00415 	stw	r7,16(sp)
  1448a8:	2021883a 	mov	r16,r4
  1448ac:	3023883a 	mov	r17,r6
  1448b0:	dcc02317 	ldw	r19,140(sp)
  1448b4:	3025883a 	mov	r18,r6
  1448b8:	10000826 	beq	r2,zero,1448dc <_dtoa_r+0x6c>
  1448bc:	20c01117 	ldw	r3,68(r4)
  1448c0:	01800044 	movi	r6,1
  1448c4:	100b883a 	mov	r5,r2
  1448c8:	30cc983a 	sll	r6,r6,r3
  1448cc:	10c00115 	stw	r3,4(r2)
  1448d0:	11800215 	stw	r6,8(r2)
  1448d4:	0147cf40 	call	147cf4 <_Bfree>
  1448d8:	80001015 	stw	zero,64(r16)
  1448dc:	88002e16 	blt	r17,zero,144998 <_dtoa_r+0x128>
  1448e0:	98000015 	stw	zero,0(r19)
  1448e4:	88dffc2c 	andhi	r3,r17,32752
  1448e8:	009ffc34 	movhi	r2,32752
  1448ec:	18801b26 	beq	r3,r2,14495c <_dtoa_r+0xec>
  1448f0:	d9000317 	ldw	r4,12(sp)
  1448f4:	900b883a 	mov	r5,r18
  1448f8:	000d883a 	mov	r6,zero
  1448fc:	000f883a 	mov	r7,zero
  144900:	014d0b40 	call	14d0b4 <__eqdf2>
  144904:	10002b1e 	bne	r2,zero,1449b4 <_dtoa_r+0x144>
  144908:	d8c02217 	ldw	r3,136(sp)
  14490c:	d9002417 	ldw	r4,144(sp)
  144910:	00800044 	movi	r2,1
  144914:	18800015 	stw	r2,0(r3)
  144918:	2001a026 	beq	r4,zero,144f9c <_dtoa_r+0x72c>
  14491c:	00800574 	movhi	r2,21
  144920:	10845244 	addi	r2,r2,4425
  144924:	20800015 	stw	r2,0(r4)
  144928:	10bfffc4 	addi	r2,r2,-1
  14492c:	dfc02017 	ldw	ra,128(sp)
  144930:	df001f17 	ldw	fp,124(sp)
  144934:	ddc01e17 	ldw	r23,120(sp)
  144938:	dd801d17 	ldw	r22,116(sp)
  14493c:	dd401c17 	ldw	r21,112(sp)
  144940:	dd001b17 	ldw	r20,108(sp)
  144944:	dcc01a17 	ldw	r19,104(sp)
  144948:	dc801917 	ldw	r18,100(sp)
  14494c:	dc401817 	ldw	r17,96(sp)
  144950:	dc001717 	ldw	r16,92(sp)
  144954:	dec02104 	addi	sp,sp,132
  144958:	f800283a 	ret
  14495c:	d8c02217 	ldw	r3,136(sp)
  144960:	d9000317 	ldw	r4,12(sp)
  144964:	0089c3c4 	movi	r2,9999
  144968:	18800015 	stw	r2,0(r3)
  14496c:	20017926 	beq	r4,zero,144f54 <_dtoa_r+0x6e4>
  144970:	00800574 	movhi	r2,21
  144974:	10845e04 	addi	r2,r2,4472
  144978:	d9802417 	ldw	r6,144(sp)
  14497c:	303feb26 	beq	r6,zero,14492c <_dtoa_r+0xbc>
  144980:	10c000c7 	ldb	r3,3(r2)
  144984:	18017a1e 	bne	r3,zero,144f70 <_dtoa_r+0x700>
  144988:	10c000c4 	addi	r3,r2,3
  14498c:	d9c02417 	ldw	r7,144(sp)
  144990:	38c00015 	stw	r3,0(r7)
  144994:	003fe506 	br	14492c <_dtoa_r+0xbc>
  144998:	04a00034 	movhi	r18,32768
  14499c:	94bfffc4 	addi	r18,r18,-1
  1449a0:	8ca4703a 	and	r18,r17,r18
  1449a4:	00800044 	movi	r2,1
  1449a8:	98800015 	stw	r2,0(r19)
  1449ac:	9023883a 	mov	r17,r18
  1449b0:	003fcc06 	br	1448e4 <_dtoa_r+0x74>
  1449b4:	d9400317 	ldw	r5,12(sp)
  1449b8:	d8800204 	addi	r2,sp,8
  1449bc:	8828d53a 	srli	r20,r17,20
  1449c0:	d8800015 	stw	r2,0(sp)
  1449c4:	8009883a 	mov	r4,r16
  1449c8:	900d883a 	mov	r6,r18
  1449cc:	d9c00104 	addi	r7,sp,4
  1449d0:	014886c0 	call	14886c <__d2b>
  1449d4:	1039883a 	mov	fp,r2
  1449d8:	a001671e 	bne	r20,zero,144f78 <_dtoa_r+0x708>
  1449dc:	dd400217 	ldw	r21,8(sp)
  1449e0:	dd000117 	ldw	r20,4(sp)
  1449e4:	00befbc4 	movi	r2,-1041
  1449e8:	ad29883a 	add	r20,r21,r20
  1449ec:	a082d616 	blt	r20,r2,145548 <_dtoa_r+0xcd8>
  1449f0:	d9800317 	ldw	r6,12(sp)
  1449f4:	013f0384 	movi	r4,-1010
  1449f8:	2509c83a 	sub	r4,r4,r20
  1449fc:	a0810484 	addi	r2,r20,1042
  144a00:	8922983a 	sll	r17,r17,r4
  144a04:	3084d83a 	srl	r2,r6,r2
  144a08:	8888b03a 	or	r4,r17,r2
  144a0c:	014e3c00 	call	14e3c0 <__floatunsidf>
  144a10:	1009883a 	mov	r4,r2
  144a14:	017f8434 	movhi	r5,65040
  144a18:	00800044 	movi	r2,1
  144a1c:	194b883a 	add	r5,r3,r5
  144a20:	a53fffc4 	addi	r20,r20,-1
  144a24:	d8800f15 	stw	r2,60(sp)
  144a28:	000d883a 	mov	r6,zero
  144a2c:	01cffe34 	movhi	r7,16376
  144a30:	014d9e80 	call	14d9e8 <__subdf3>
  144a34:	1009883a 	mov	r4,r2
  144a38:	180b883a 	mov	r5,r3
  144a3c:	0198dbf4 	movhi	r6,25455
  144a40:	3190d844 	addi	r6,r6,17249
  144a44:	01cff4f4 	movhi	r7,16339
  144a48:	39e1e9c4 	addi	r7,r7,-30809
  144a4c:	014d2fc0 	call	14d2fc <__muldf3>
  144a50:	180b883a 	mov	r5,r3
  144a54:	01a2d874 	movhi	r6,35681
  144a58:	31b22cc4 	addi	r6,r6,-14157
  144a5c:	01cff1f4 	movhi	r7,16327
  144a60:	39e28a04 	addi	r7,r7,-30168
  144a64:	1009883a 	mov	r4,r2
  144a68:	014bf640 	call	14bf64 <__adddf3>
  144a6c:	a009883a 	mov	r4,r20
  144a70:	1027883a 	mov	r19,r2
  144a74:	1823883a 	mov	r17,r3
  144a78:	014e2f00 	call	14e2f0 <__floatsidf>
  144a7c:	1009883a 	mov	r4,r2
  144a80:	180b883a 	mov	r5,r3
  144a84:	019427f4 	movhi	r6,20639
  144a88:	319e7ec4 	addi	r6,r6,31227
  144a8c:	01cff4f4 	movhi	r7,16339
  144a90:	39d104c4 	addi	r7,r7,17427
  144a94:	014d2fc0 	call	14d2fc <__muldf3>
  144a98:	9809883a 	mov	r4,r19
  144a9c:	880b883a 	mov	r5,r17
  144aa0:	100d883a 	mov	r6,r2
  144aa4:	180f883a 	mov	r7,r3
  144aa8:	014bf640 	call	14bf64 <__adddf3>
  144aac:	1009883a 	mov	r4,r2
  144ab0:	180b883a 	mov	r5,r3
  144ab4:	1027883a 	mov	r19,r2
  144ab8:	1823883a 	mov	r17,r3
  144abc:	014e2700 	call	14e270 <__fixdfsi>
  144ac0:	9809883a 	mov	r4,r19
  144ac4:	880b883a 	mov	r5,r17
  144ac8:	000d883a 	mov	r6,zero
  144acc:	000f883a 	mov	r7,zero
  144ad0:	d8800615 	stw	r2,24(sp)
  144ad4:	014d2100 	call	14d210 <__ledf2>
  144ad8:	10028416 	blt	r2,zero,1454ec <_dtoa_r+0xc7c>
  144adc:	d9000617 	ldw	r4,24(sp)
  144ae0:	00800584 	movi	r2,22
  144ae4:	11027236 	bltu	r2,r4,1454b0 <_dtoa_r+0xc40>
  144ae8:	200490fa 	slli	r2,r4,3
  144aec:	00c00574 	movhi	r3,21
  144af0:	18c47a04 	addi	r3,r3,4584
  144af4:	d9800317 	ldw	r6,12(sp)
  144af8:	1885883a 	add	r2,r3,r2
  144afc:	11000017 	ldw	r4,0(r2)
  144b00:	11400117 	ldw	r5,4(r2)
  144b04:	900f883a 	mov	r7,r18
  144b08:	014d1380 	call	14d138 <__gedf2>
  144b0c:	0082930e 	bge	zero,r2,14555c <_dtoa_r+0xcec>
  144b10:	d9800617 	ldw	r6,24(sp)
  144b14:	d8000e15 	stw	zero,56(sp)
  144b18:	31bfffc4 	addi	r6,r6,-1
  144b1c:	d9800615 	stw	r6,24(sp)
  144b20:	ad2bc83a 	sub	r21,r21,r20
  144b24:	ad7fffc4 	addi	r21,r21,-1
  144b28:	a8026c16 	blt	r21,zero,1454dc <_dtoa_r+0xc6c>
  144b2c:	d8000815 	stw	zero,32(sp)
  144b30:	d8800617 	ldw	r2,24(sp)
  144b34:	10026116 	blt	r2,zero,1454bc <_dtoa_r+0xc4c>
  144b38:	a8ab883a 	add	r21,r21,r2
  144b3c:	d8800b15 	stw	r2,44(sp)
  144b40:	d8000a15 	stw	zero,40(sp)
  144b44:	d9c00417 	ldw	r7,16(sp)
  144b48:	00800244 	movi	r2,9
  144b4c:	11c11636 	bltu	r2,r7,144fa8 <_dtoa_r+0x738>
  144b50:	00800144 	movi	r2,5
  144b54:	11c4cc0e 	bge	r2,r7,145e88 <_dtoa_r+0x1618>
  144b58:	39ffff04 	addi	r7,r7,-4
  144b5c:	d9c00415 	stw	r7,16(sp)
  144b60:	0027883a 	mov	r19,zero
  144b64:	d8c00417 	ldw	r3,16(sp)
  144b68:	008000c4 	movi	r2,3
  144b6c:	1883aa26 	beq	r3,r2,145a18 <_dtoa_r+0x11a8>
  144b70:	10c35b0e 	bge	r2,r3,1458e0 <_dtoa_r+0x1070>
  144b74:	d9000417 	ldw	r4,16(sp)
  144b78:	00800104 	movi	r2,4
  144b7c:	2082da26 	beq	r4,r2,1456e8 <_dtoa_r+0xe78>
  144b80:	00800144 	movi	r2,5
  144b84:	2081091e 	bne	r4,r2,144fac <_dtoa_r+0x73c>
  144b88:	01c00044 	movi	r7,1
  144b8c:	d9c00c15 	stw	r7,48(sp)
  144b90:	d8c02117 	ldw	r3,132(sp)
  144b94:	d9000617 	ldw	r4,24(sp)
  144b98:	1907883a 	add	r3,r3,r4
  144b9c:	19800044 	addi	r6,r3,1
  144ba0:	d8c00d15 	stw	r3,52(sp)
  144ba4:	d9800915 	stw	r6,36(sp)
  144ba8:	0183a90e 	bge	zero,r6,145a50 <_dtoa_r+0x11e0>
  144bac:	d9800917 	ldw	r6,36(sp)
  144bb0:	80001115 	stw	zero,68(r16)
  144bb4:	008005c4 	movi	r2,23
  144bb8:	1184b52e 	bgeu	r2,r6,145e90 <_dtoa_r+0x1620>
  144bbc:	00c00044 	movi	r3,1
  144bc0:	00800104 	movi	r2,4
  144bc4:	1085883a 	add	r2,r2,r2
  144bc8:	11000504 	addi	r4,r2,20
  144bcc:	180b883a 	mov	r5,r3
  144bd0:	18c00044 	addi	r3,r3,1
  144bd4:	313ffb2e 	bgeu	r6,r4,144bc4 <_dtoa_r+0x354>
  144bd8:	81401115 	stw	r5,68(r16)
  144bdc:	3023883a 	mov	r17,r6
  144be0:	8009883a 	mov	r4,r16
  144be4:	0147c4c0 	call	147c4c <_Balloc>
  144be8:	d8800715 	stw	r2,28(sp)
  144bec:	80801015 	stw	r2,64(r16)
  144bf0:	00800384 	movi	r2,14
  144bf4:	1440f936 	bltu	r2,r17,144fdc <_dtoa_r+0x76c>
  144bf8:	9800f826 	beq	r19,zero,144fdc <_dtoa_r+0x76c>
  144bfc:	d9c00617 	ldw	r7,24(sp)
  144c00:	01c39c0e 	bge	zero,r7,145a74 <_dtoa_r+0x1204>
  144c04:	388003cc 	andi	r2,r7,15
  144c08:	100490fa 	slli	r2,r2,3
  144c0c:	382dd13a 	srai	r22,r7,4
  144c10:	00c00574 	movhi	r3,21
  144c14:	18c47a04 	addi	r3,r3,4584
  144c18:	1885883a 	add	r2,r3,r2
  144c1c:	b0c0040c 	andi	r3,r22,16
  144c20:	12800017 	ldw	r10,0(r2)
  144c24:	12400117 	ldw	r9,4(r2)
  144c28:	18038526 	beq	r3,zero,145a40 <_dtoa_r+0x11d0>
  144c2c:	00800574 	movhi	r2,21
  144c30:	10847004 	addi	r2,r2,4544
  144c34:	11800817 	ldw	r6,32(r2)
  144c38:	11c00917 	ldw	r7,36(r2)
  144c3c:	d9000317 	ldw	r4,12(sp)
  144c40:	900b883a 	mov	r5,r18
  144c44:	da401515 	stw	r9,84(sp)
  144c48:	da801615 	stw	r10,88(sp)
  144c4c:	014c7e00 	call	14c7e0 <__divdf3>
  144c50:	da401517 	ldw	r9,84(sp)
  144c54:	da801617 	ldw	r10,88(sp)
  144c58:	1027883a 	mov	r19,r2
  144c5c:	1829883a 	mov	r20,r3
  144c60:	b58003cc 	andi	r22,r22,15
  144c64:	044000c4 	movi	r17,3
  144c68:	b0001126 	beq	r22,zero,144cb0 <_dtoa_r+0x440>
  144c6c:	05c00574 	movhi	r23,21
  144c70:	bdc47004 	addi	r23,r23,4544
  144c74:	5005883a 	mov	r2,r10
  144c78:	4807883a 	mov	r3,r9
  144c7c:	b180004c 	andi	r6,r22,1
  144c80:	1009883a 	mov	r4,r2
  144c84:	b02dd07a 	srai	r22,r22,1
  144c88:	180b883a 	mov	r5,r3
  144c8c:	30000426 	beq	r6,zero,144ca0 <_dtoa_r+0x430>
  144c90:	b9800017 	ldw	r6,0(r23)
  144c94:	b9c00117 	ldw	r7,4(r23)
  144c98:	8c400044 	addi	r17,r17,1
  144c9c:	014d2fc0 	call	14d2fc <__muldf3>
  144ca0:	bdc00204 	addi	r23,r23,8
  144ca4:	b03ff51e 	bne	r22,zero,144c7c <_dtoa_r+0x40c>
  144ca8:	1015883a 	mov	r10,r2
  144cac:	1813883a 	mov	r9,r3
  144cb0:	9809883a 	mov	r4,r19
  144cb4:	a00b883a 	mov	r5,r20
  144cb8:	500d883a 	mov	r6,r10
  144cbc:	480f883a 	mov	r7,r9
  144cc0:	014c7e00 	call	14c7e0 <__divdf3>
  144cc4:	1027883a 	mov	r19,r2
  144cc8:	1829883a 	mov	r20,r3
  144ccc:	d8c00e17 	ldw	r3,56(sp)
  144cd0:	18000626 	beq	r3,zero,144cec <_dtoa_r+0x47c>
  144cd4:	9809883a 	mov	r4,r19
  144cd8:	a00b883a 	mov	r5,r20
  144cdc:	000d883a 	mov	r6,zero
  144ce0:	01cffc34 	movhi	r7,16368
  144ce4:	014d2100 	call	14d210 <__ledf2>
  144ce8:	10041516 	blt	r2,zero,145d40 <_dtoa_r+0x14d0>
  144cec:	8809883a 	mov	r4,r17
  144cf0:	014e2f00 	call	14e2f0 <__floatsidf>
  144cf4:	1009883a 	mov	r4,r2
  144cf8:	180b883a 	mov	r5,r3
  144cfc:	980d883a 	mov	r6,r19
  144d00:	a00f883a 	mov	r7,r20
  144d04:	014d2fc0 	call	14d2fc <__muldf3>
  144d08:	1009883a 	mov	r4,r2
  144d0c:	180b883a 	mov	r5,r3
  144d10:	000d883a 	mov	r6,zero
  144d14:	01d00734 	movhi	r7,16412
  144d18:	014bf640 	call	14bf64 <__adddf3>
  144d1c:	1023883a 	mov	r17,r2
  144d20:	d8800917 	ldw	r2,36(sp)
  144d24:	05bf3034 	movhi	r22,64704
  144d28:	1daf883a 	add	r23,r3,r22
  144d2c:	10031e26 	beq	r2,zero,1459a8 <_dtoa_r+0x1138>
  144d30:	d8c00617 	ldw	r3,24(sp)
  144d34:	dac00917 	ldw	r11,36(sp)
  144d38:	d8c01315 	stw	r3,76(sp)
  144d3c:	d9000c17 	ldw	r4,48(sp)
  144d40:	20039626 	beq	r4,zero,145b9c <_dtoa_r+0x132c>
  144d44:	58bfffc4 	addi	r2,r11,-1
  144d48:	100490fa 	slli	r2,r2,3
  144d4c:	00c00574 	movhi	r3,21
  144d50:	18c47a04 	addi	r3,r3,4584
  144d54:	0009883a 	mov	r4,zero
  144d58:	1885883a 	add	r2,r3,r2
  144d5c:	11800017 	ldw	r6,0(r2)
  144d60:	11c00117 	ldw	r7,4(r2)
  144d64:	d8800717 	ldw	r2,28(sp)
  144d68:	014ff834 	movhi	r5,16352
  144d6c:	dac01615 	stw	r11,88(sp)
  144d70:	15800044 	addi	r22,r2,1
  144d74:	014c7e00 	call	14c7e0 <__divdf3>
  144d78:	880d883a 	mov	r6,r17
  144d7c:	b80f883a 	mov	r7,r23
  144d80:	1009883a 	mov	r4,r2
  144d84:	180b883a 	mov	r5,r3
  144d88:	014d9e80 	call	14d9e8 <__subdf3>
  144d8c:	a00b883a 	mov	r5,r20
  144d90:	9809883a 	mov	r4,r19
  144d94:	102f883a 	mov	r23,r2
  144d98:	d8c01015 	stw	r3,64(sp)
  144d9c:	014e2700 	call	14e270 <__fixdfsi>
  144da0:	1009883a 	mov	r4,r2
  144da4:	d8801515 	stw	r2,84(sp)
  144da8:	014e2f00 	call	14e2f0 <__floatsidf>
  144dac:	9809883a 	mov	r4,r19
  144db0:	a00b883a 	mov	r5,r20
  144db4:	100d883a 	mov	r6,r2
  144db8:	180f883a 	mov	r7,r3
  144dbc:	014d9e80 	call	14d9e8 <__subdf3>
  144dc0:	da401517 	ldw	r9,84(sp)
  144dc4:	1827883a 	mov	r19,r3
  144dc8:	d8c00717 	ldw	r3,28(sp)
  144dcc:	d9401017 	ldw	r5,64(sp)
  144dd0:	4a400c04 	addi	r9,r9,48
  144dd4:	1023883a 	mov	r17,r2
  144dd8:	1a400005 	stb	r9,0(r3)
  144ddc:	b809883a 	mov	r4,r23
  144de0:	880d883a 	mov	r6,r17
  144de4:	980f883a 	mov	r7,r19
  144de8:	4829883a 	mov	r20,r9
  144dec:	014d1380 	call	14d138 <__gedf2>
  144df0:	00842216 	blt	zero,r2,145e7c <_dtoa_r+0x160c>
  144df4:	0009883a 	mov	r4,zero
  144df8:	014ffc34 	movhi	r5,16368
  144dfc:	880d883a 	mov	r6,r17
  144e00:	980f883a 	mov	r7,r19
  144e04:	014d9e80 	call	14d9e8 <__subdf3>
  144e08:	d9401017 	ldw	r5,64(sp)
  144e0c:	b809883a 	mov	r4,r23
  144e10:	100d883a 	mov	r6,r2
  144e14:	180f883a 	mov	r7,r3
  144e18:	014d1380 	call	14d138 <__gedf2>
  144e1c:	dac01617 	ldw	r11,88(sp)
  144e20:	00841316 	blt	zero,r2,145e70 <_dtoa_r+0x1600>
  144e24:	00800044 	movi	r2,1
  144e28:	12c06c0e 	bge	r2,r11,144fdc <_dtoa_r+0x76c>
  144e2c:	d9000717 	ldw	r4,28(sp)
  144e30:	dd401215 	stw	r21,72(sp)
  144e34:	dc001115 	stw	r16,68(sp)
  144e38:	22d7883a 	add	r11,r4,r11
  144e3c:	dc801415 	stw	r18,80(sp)
  144e40:	582b883a 	mov	r21,r11
  144e44:	b021883a 	mov	r16,r22
  144e48:	dc801017 	ldw	r18,64(sp)
  144e4c:	00000906 	br	144e74 <_dtoa_r+0x604>
  144e50:	014d9e80 	call	14d9e8 <__subdf3>
  144e54:	1009883a 	mov	r4,r2
  144e58:	180b883a 	mov	r5,r3
  144e5c:	b80d883a 	mov	r6,r23
  144e60:	900f883a 	mov	r7,r18
  144e64:	014d2100 	call	14d210 <__ledf2>
  144e68:	1003ea16 	blt	r2,zero,145e14 <_dtoa_r+0x15a4>
  144e6c:	b543ed26 	beq	r22,r21,145e24 <_dtoa_r+0x15b4>
  144e70:	b021883a 	mov	r16,r22
  144e74:	b809883a 	mov	r4,r23
  144e78:	900b883a 	mov	r5,r18
  144e7c:	000d883a 	mov	r6,zero
  144e80:	01d00934 	movhi	r7,16420
  144e84:	014d2fc0 	call	14d2fc <__muldf3>
  144e88:	000d883a 	mov	r6,zero
  144e8c:	01d00934 	movhi	r7,16420
  144e90:	8809883a 	mov	r4,r17
  144e94:	980b883a 	mov	r5,r19
  144e98:	102f883a 	mov	r23,r2
  144e9c:	1825883a 	mov	r18,r3
  144ea0:	014d2fc0 	call	14d2fc <__muldf3>
  144ea4:	180b883a 	mov	r5,r3
  144ea8:	1009883a 	mov	r4,r2
  144eac:	1823883a 	mov	r17,r3
  144eb0:	1027883a 	mov	r19,r2
  144eb4:	014e2700 	call	14e270 <__fixdfsi>
  144eb8:	1009883a 	mov	r4,r2
  144ebc:	1029883a 	mov	r20,r2
  144ec0:	014e2f00 	call	14e2f0 <__floatsidf>
  144ec4:	9809883a 	mov	r4,r19
  144ec8:	880b883a 	mov	r5,r17
  144ecc:	100d883a 	mov	r6,r2
  144ed0:	180f883a 	mov	r7,r3
  144ed4:	014d9e80 	call	14d9e8 <__subdf3>
  144ed8:	a5000c04 	addi	r20,r20,48
  144edc:	1009883a 	mov	r4,r2
  144ee0:	180b883a 	mov	r5,r3
  144ee4:	b80d883a 	mov	r6,r23
  144ee8:	900f883a 	mov	r7,r18
  144eec:	85000005 	stb	r20,0(r16)
  144ef0:	1023883a 	mov	r17,r2
  144ef4:	1827883a 	mov	r19,r3
  144ef8:	014d2100 	call	14d210 <__ledf2>
  144efc:	b5800044 	addi	r22,r22,1
  144f00:	0009883a 	mov	r4,zero
  144f04:	014ffc34 	movhi	r5,16368
  144f08:	880d883a 	mov	r6,r17
  144f0c:	980f883a 	mov	r7,r19
  144f10:	103fcf0e 	bge	r2,zero,144e50 <_dtoa_r+0x5e0>
  144f14:	d8c01317 	ldw	r3,76(sp)
  144f18:	dc001117 	ldw	r16,68(sp)
  144f1c:	d8c00615 	stw	r3,24(sp)
  144f20:	8009883a 	mov	r4,r16
  144f24:	e00b883a 	mov	r5,fp
  144f28:	0147cf40 	call	147cf4 <_Bfree>
  144f2c:	d9800617 	ldw	r6,24(sp)
  144f30:	d9c02217 	ldw	r7,136(sp)
  144f34:	b0000005 	stb	zero,0(r22)
  144f38:	30800044 	addi	r2,r6,1
  144f3c:	38800015 	stw	r2,0(r7)
  144f40:	d8802417 	ldw	r2,144(sp)
  144f44:	10026426 	beq	r2,zero,1458d8 <_dtoa_r+0x1068>
  144f48:	15800015 	stw	r22,0(r2)
  144f4c:	d8800717 	ldw	r2,28(sp)
  144f50:	003e7606 	br	14492c <_dtoa_r+0xbc>
  144f54:	00800434 	movhi	r2,16
  144f58:	10bfffc4 	addi	r2,r2,-1
  144f5c:	88a2703a 	and	r17,r17,r2
  144f60:	883e831e 	bne	r17,zero,144970 <_dtoa_r+0x100>
  144f64:	00800574 	movhi	r2,21
  144f68:	10845b04 	addi	r2,r2,4460
  144f6c:	003e8206 	br	144978 <_dtoa_r+0x108>
  144f70:	10c00204 	addi	r3,r2,8
  144f74:	003e8506 	br	14498c <_dtoa_r+0x11c>
  144f78:	01400434 	movhi	r5,16
  144f7c:	297fffc4 	addi	r5,r5,-1
  144f80:	914a703a 	and	r5,r18,r5
  144f84:	d9000317 	ldw	r4,12(sp)
  144f88:	294ffc34 	orhi	r5,r5,16368
  144f8c:	a53f0044 	addi	r20,r20,-1023
  144f90:	dd400217 	ldw	r21,8(sp)
  144f94:	d8000f15 	stw	zero,60(sp)
  144f98:	003ea306 	br	144a28 <_dtoa_r+0x1b8>
  144f9c:	00800574 	movhi	r2,21
  144fa0:	10845204 	addi	r2,r2,4424
  144fa4:	003e6106 	br	14492c <_dtoa_r+0xbc>
  144fa8:	d8000415 	stw	zero,16(sp)
  144fac:	8009883a 	mov	r4,r16
  144fb0:	80001115 	stw	zero,68(r16)
  144fb4:	000b883a 	mov	r5,zero
  144fb8:	0147c4c0 	call	147c4c <_Balloc>
  144fbc:	00ffffc4 	movi	r3,-1
  144fc0:	01000044 	movi	r4,1
  144fc4:	d8800715 	stw	r2,28(sp)
  144fc8:	d8c00d15 	stw	r3,52(sp)
  144fcc:	80801015 	stw	r2,64(r16)
  144fd0:	d8002115 	stw	zero,132(sp)
  144fd4:	d8c00915 	stw	r3,36(sp)
  144fd8:	d9000c15 	stw	r4,48(sp)
  144fdc:	d8800117 	ldw	r2,4(sp)
  144fe0:	10008e16 	blt	r2,zero,14521c <_dtoa_r+0x9ac>
  144fe4:	d9000617 	ldw	r4,24(sp)
  144fe8:	00c00384 	movi	r3,14
  144fec:	19008b16 	blt	r3,r4,14521c <_dtoa_r+0x9ac>
  144ff0:	200490fa 	slli	r2,r4,3
  144ff4:	d9802117 	ldw	r6,132(sp)
  144ff8:	00c00574 	movhi	r3,21
  144ffc:	18c47a04 	addi	r3,r3,4584
  145000:	1885883a 	add	r2,r3,r2
  145004:	14400017 	ldw	r17,0(r2)
  145008:	14c00117 	ldw	r19,4(r2)
  14500c:	3001be16 	blt	r6,zero,145708 <_dtoa_r+0xe98>
  145010:	d9000317 	ldw	r4,12(sp)
  145014:	880d883a 	mov	r6,r17
  145018:	980f883a 	mov	r7,r19
  14501c:	900b883a 	mov	r5,r18
  145020:	014c7e00 	call	14c7e0 <__divdf3>
  145024:	180b883a 	mov	r5,r3
  145028:	1009883a 	mov	r4,r2
  14502c:	014e2700 	call	14e270 <__fixdfsi>
  145030:	1009883a 	mov	r4,r2
  145034:	102f883a 	mov	r23,r2
  145038:	014e2f00 	call	14e2f0 <__floatsidf>
  14503c:	1009883a 	mov	r4,r2
  145040:	180b883a 	mov	r5,r3
  145044:	880d883a 	mov	r6,r17
  145048:	980f883a 	mov	r7,r19
  14504c:	014d2fc0 	call	14d2fc <__muldf3>
  145050:	d9000317 	ldw	r4,12(sp)
  145054:	900b883a 	mov	r5,r18
  145058:	100d883a 	mov	r6,r2
  14505c:	180f883a 	mov	r7,r3
  145060:	014d9e80 	call	14d9e8 <__subdf3>
  145064:	d9c00717 	ldw	r7,28(sp)
  145068:	1009883a 	mov	r4,r2
  14506c:	b8800c04 	addi	r2,r23,48
  145070:	38800005 	stb	r2,0(r7)
  145074:	3d800044 	addi	r22,r7,1
  145078:	d9c00917 	ldw	r7,36(sp)
  14507c:	01800044 	movi	r6,1
  145080:	180b883a 	mov	r5,r3
  145084:	2005883a 	mov	r2,r4
  145088:	39803e26 	beq	r7,r6,145184 <_dtoa_r+0x914>
  14508c:	000d883a 	mov	r6,zero
  145090:	01d00934 	movhi	r7,16420
  145094:	014d2fc0 	call	14d2fc <__muldf3>
  145098:	1009883a 	mov	r4,r2
  14509c:	180b883a 	mov	r5,r3
  1450a0:	000d883a 	mov	r6,zero
  1450a4:	000f883a 	mov	r7,zero
  1450a8:	1029883a 	mov	r20,r2
  1450ac:	182b883a 	mov	r21,r3
  1450b0:	014d0b40 	call	14d0b4 <__eqdf2>
  1450b4:	103f9a26 	beq	r2,zero,144f20 <_dtoa_r+0x6b0>
  1450b8:	d8c00717 	ldw	r3,28(sp)
  1450bc:	d9000917 	ldw	r4,36(sp)
  1450c0:	b025883a 	mov	r18,r22
  1450c4:	df000415 	stw	fp,16(sp)
  1450c8:	1905883a 	add	r2,r3,r4
  1450cc:	15ffffc4 	addi	r23,r2,-1
  1450d0:	dc000315 	stw	r16,12(sp)
  1450d4:	00000a06 	br	145100 <_dtoa_r+0x890>
  1450d8:	014d2fc0 	call	14d2fc <__muldf3>
  1450dc:	1009883a 	mov	r4,r2
  1450e0:	180b883a 	mov	r5,r3
  1450e4:	000d883a 	mov	r6,zero
  1450e8:	000f883a 	mov	r7,zero
  1450ec:	1029883a 	mov	r20,r2
  1450f0:	182b883a 	mov	r21,r3
  1450f4:	014d0b40 	call	14d0b4 <__eqdf2>
  1450f8:	10021926 	beq	r2,zero,145960 <_dtoa_r+0x10f0>
  1450fc:	e025883a 	mov	r18,fp
  145100:	880d883a 	mov	r6,r17
  145104:	980f883a 	mov	r7,r19
  145108:	a009883a 	mov	r4,r20
  14510c:	a80b883a 	mov	r5,r21
  145110:	014c7e00 	call	14c7e0 <__divdf3>
  145114:	180b883a 	mov	r5,r3
  145118:	1009883a 	mov	r4,r2
  14511c:	014e2700 	call	14e270 <__fixdfsi>
  145120:	1009883a 	mov	r4,r2
  145124:	1021883a 	mov	r16,r2
  145128:	014e2f00 	call	14e2f0 <__floatsidf>
  14512c:	1009883a 	mov	r4,r2
  145130:	180b883a 	mov	r5,r3
  145134:	880d883a 	mov	r6,r17
  145138:	980f883a 	mov	r7,r19
  14513c:	014d2fc0 	call	14d2fc <__muldf3>
  145140:	a009883a 	mov	r4,r20
  145144:	a80b883a 	mov	r5,r21
  145148:	100d883a 	mov	r6,r2
  14514c:	180f883a 	mov	r7,r3
  145150:	014d9e80 	call	14d9e8 <__subdf3>
  145154:	82800c04 	addi	r10,r16,48
  145158:	97000044 	addi	fp,r18,1
  14515c:	92800005 	stb	r10,0(r18)
  145160:	000d883a 	mov	r6,zero
  145164:	01d00934 	movhi	r7,16420
  145168:	1009883a 	mov	r4,r2
  14516c:	180b883a 	mov	r5,r3
  145170:	e02d883a 	mov	r22,fp
  145174:	95ffd81e 	bne	r18,r23,1450d8 <_dtoa_r+0x868>
  145178:	802f883a 	mov	r23,r16
  14517c:	df000417 	ldw	fp,16(sp)
  145180:	dc000317 	ldw	r16,12(sp)
  145184:	1009883a 	mov	r4,r2
  145188:	180b883a 	mov	r5,r3
  14518c:	100d883a 	mov	r6,r2
  145190:	180f883a 	mov	r7,r3
  145194:	014bf640 	call	14bf64 <__adddf3>
  145198:	8809883a 	mov	r4,r17
  14519c:	980b883a 	mov	r5,r19
  1451a0:	100d883a 	mov	r6,r2
  1451a4:	180f883a 	mov	r7,r3
  1451a8:	1025883a 	mov	r18,r2
  1451ac:	1829883a 	mov	r20,r3
  1451b0:	014d2100 	call	14d210 <__ledf2>
  1451b4:	10000816 	blt	r2,zero,1451d8 <_dtoa_r+0x968>
  1451b8:	8809883a 	mov	r4,r17
  1451bc:	980b883a 	mov	r5,r19
  1451c0:	900d883a 	mov	r6,r18
  1451c4:	a00f883a 	mov	r7,r20
  1451c8:	014d0b40 	call	14d0b4 <__eqdf2>
  1451cc:	103f541e 	bne	r2,zero,144f20 <_dtoa_r+0x6b0>
  1451d0:	bdc0004c 	andi	r23,r23,1
  1451d4:	b83f5226 	beq	r23,zero,144f20 <_dtoa_r+0x6b0>
  1451d8:	b53fffc3 	ldbu	r20,-1(r22)
  1451dc:	b0ffff84 	addi	r3,r22,-2
  1451e0:	01400e44 	movi	r5,57
  1451e4:	d9800717 	ldw	r6,28(sp)
  1451e8:	00000406 	br	1451fc <_dtoa_r+0x98c>
  1451ec:	30824326 	beq	r6,r2,145afc <_dtoa_r+0x128c>
  1451f0:	1d000003 	ldbu	r20,0(r3)
  1451f4:	102d883a 	mov	r22,r2
  1451f8:	18ffffc4 	addi	r3,r3,-1
  1451fc:	a1003fcc 	andi	r4,r20,255
  145200:	2100201c 	xori	r4,r4,128
  145204:	213fe004 	addi	r4,r4,-128
  145208:	b0bfffc4 	addi	r2,r22,-1
  14520c:	217ff726 	beq	r4,r5,1451ec <_dtoa_r+0x97c>
  145210:	a2400044 	addi	r9,r20,1
  145214:	12400005 	stb	r9,0(r2)
  145218:	003f4106 	br	144f20 <_dtoa_r+0x6b0>
  14521c:	d9000c17 	ldw	r4,48(sp)
  145220:	2000be26 	beq	r4,zero,14551c <_dtoa_r+0xcac>
  145224:	d9800417 	ldw	r6,16(sp)
  145228:	00c00044 	movi	r3,1
  14522c:	19815e0e 	bge	r3,r6,1457a8 <_dtoa_r+0xf38>
  145230:	d8800917 	ldw	r2,36(sp)
  145234:	d8c00a17 	ldw	r3,40(sp)
  145238:	153fffc4 	addi	r20,r2,-1
  14523c:	1d01f816 	blt	r3,r20,145a20 <_dtoa_r+0x11b0>
  145240:	1d29c83a 	sub	r20,r3,r20
  145244:	d9c00917 	ldw	r7,36(sp)
  145248:	3802ad16 	blt	r7,zero,145d00 <_dtoa_r+0x1490>
  14524c:	dcc00817 	ldw	r19,32(sp)
  145250:	d8800917 	ldw	r2,36(sp)
  145254:	d8c00817 	ldw	r3,32(sp)
  145258:	8009883a 	mov	r4,r16
  14525c:	01400044 	movi	r5,1
  145260:	1887883a 	add	r3,r3,r2
  145264:	d8c00815 	stw	r3,32(sp)
  145268:	a8ab883a 	add	r21,r21,r2
  14526c:	014804c0 	call	14804c <__i2b>
  145270:	1023883a 	mov	r17,r2
  145274:	98000826 	beq	r19,zero,145298 <_dtoa_r+0xa28>
  145278:	0540070e 	bge	zero,r21,145298 <_dtoa_r+0xa28>
  14527c:	a805883a 	mov	r2,r21
  145280:	9d411716 	blt	r19,r21,1456e0 <_dtoa_r+0xe70>
  145284:	d9000817 	ldw	r4,32(sp)
  145288:	98a7c83a 	sub	r19,r19,r2
  14528c:	a8abc83a 	sub	r21,r21,r2
  145290:	2089c83a 	sub	r4,r4,r2
  145294:	d9000815 	stw	r4,32(sp)
  145298:	d9800a17 	ldw	r6,40(sp)
  14529c:	0180140e 	bge	zero,r6,1452f0 <_dtoa_r+0xa80>
  1452a0:	d9c00c17 	ldw	r7,48(sp)
  1452a4:	3801d626 	beq	r7,zero,145a00 <_dtoa_r+0x1190>
  1452a8:	05000e0e 	bge	zero,r20,1452e4 <_dtoa_r+0xa74>
  1452ac:	880b883a 	mov	r5,r17
  1452b0:	8009883a 	mov	r4,r16
  1452b4:	a00d883a 	mov	r6,r20
  1452b8:	01482740 	call	148274 <__pow5mult>
  1452bc:	e00d883a 	mov	r6,fp
  1452c0:	8009883a 	mov	r4,r16
  1452c4:	100b883a 	mov	r5,r2
  1452c8:	1023883a 	mov	r17,r2
  1452cc:	01480880 	call	148088 <__multiply>
  1452d0:	102d883a 	mov	r22,r2
  1452d4:	e00b883a 	mov	r5,fp
  1452d8:	8009883a 	mov	r4,r16
  1452dc:	0147cf40 	call	147cf4 <_Bfree>
  1452e0:	b039883a 	mov	fp,r22
  1452e4:	d8800a17 	ldw	r2,40(sp)
  1452e8:	150dc83a 	sub	r6,r2,r20
  1452ec:	30011f1e 	bne	r6,zero,14576c <_dtoa_r+0xefc>
  1452f0:	8009883a 	mov	r4,r16
  1452f4:	01400044 	movi	r5,1
  1452f8:	014804c0 	call	14804c <__i2b>
  1452fc:	d8c00b17 	ldw	r3,44(sp)
  145300:	1029883a 	mov	r20,r2
  145304:	00c0050e 	bge	zero,r3,14531c <_dtoa_r+0xaac>
  145308:	8009883a 	mov	r4,r16
  14530c:	100b883a 	mov	r5,r2
  145310:	180d883a 	mov	r6,r3
  145314:	01482740 	call	148274 <__pow5mult>
  145318:	1029883a 	mov	r20,r2
  14531c:	d9000417 	ldw	r4,16(sp)
  145320:	00800044 	movi	r2,1
  145324:	1100e00e 	bge	r2,r4,1456a8 <_dtoa_r+0xe38>
  145328:	0025883a 	mov	r18,zero
  14532c:	d8800b17 	ldw	r2,44(sp)
  145330:	10015f1e 	bne	r2,zero,1458b0 <_dtoa_r+0x1040>
  145334:	00800044 	movi	r2,1
  145338:	1545883a 	add	r2,r2,r21
  14533c:	108007cc 	andi	r2,r2,31
  145340:	10007a26 	beq	r2,zero,14552c <_dtoa_r+0xcbc>
  145344:	01000804 	movi	r4,32
  145348:	2089c83a 	sub	r4,r4,r2
  14534c:	00c00104 	movi	r3,4
  145350:	1902d20e 	bge	r3,r4,145e9c <_dtoa_r+0x162c>
  145354:	00c00704 	movi	r3,28
  145358:	1885c83a 	sub	r2,r3,r2
  14535c:	d8c00817 	ldw	r3,32(sp)
  145360:	98a7883a 	add	r19,r19,r2
  145364:	a8ab883a 	add	r21,r21,r2
  145368:	1887883a 	add	r3,r3,r2
  14536c:	d8c00815 	stw	r3,32(sp)
  145370:	d9800817 	ldw	r6,32(sp)
  145374:	0180040e 	bge	zero,r6,145388 <_dtoa_r+0xb18>
  145378:	e00b883a 	mov	r5,fp
  14537c:	8009883a 	mov	r4,r16
  145380:	01483bc0 	call	1483bc <__lshift>
  145384:	1039883a 	mov	fp,r2
  145388:	0540050e 	bge	zero,r21,1453a0 <_dtoa_r+0xb30>
  14538c:	a00b883a 	mov	r5,r20
  145390:	8009883a 	mov	r4,r16
  145394:	a80d883a 	mov	r6,r21
  145398:	01483bc0 	call	1483bc <__lshift>
  14539c:	1029883a 	mov	r20,r2
  1453a0:	d9c00e17 	ldw	r7,56(sp)
  1453a4:	3801301e 	bne	r7,zero,145868 <_dtoa_r+0xff8>
  1453a8:	d9c00917 	ldw	r7,36(sp)
  1453ac:	01c1500e 	bge	zero,r7,1458f0 <_dtoa_r+0x1080>
  1453b0:	d8800c17 	ldw	r2,48(sp)
  1453b4:	10006b1e 	bne	r2,zero,145564 <_dtoa_r+0xcf4>
  1453b8:	dc800717 	ldw	r18,28(sp)
  1453bc:	dcc00917 	ldw	r19,36(sp)
  1453c0:	902b883a 	mov	r21,r18
  1453c4:	00000206 	br	1453d0 <_dtoa_r+0xb60>
  1453c8:	0147d1c0 	call	147d1c <__multadd>
  1453cc:	1039883a 	mov	fp,r2
  1453d0:	e009883a 	mov	r4,fp
  1453d4:	a00b883a 	mov	r5,r20
  1453d8:	014466c0 	call	14466c <quorem>
  1453dc:	10800c04 	addi	r2,r2,48
  1453e0:	90800005 	stb	r2,0(r18)
  1453e4:	94800044 	addi	r18,r18,1
  1453e8:	9547c83a 	sub	r3,r18,r21
  1453ec:	8009883a 	mov	r4,r16
  1453f0:	e00b883a 	mov	r5,fp
  1453f4:	01800284 	movi	r6,10
  1453f8:	000f883a 	mov	r7,zero
  1453fc:	1cfff216 	blt	r3,r19,1453c8 <_dtoa_r+0xb58>
  145400:	102f883a 	mov	r23,r2
  145404:	d8800917 	ldw	r2,36(sp)
  145408:	0082410e 	bge	zero,r2,145d10 <_dtoa_r+0x14a0>
  14540c:	d9000717 	ldw	r4,28(sp)
  145410:	002b883a 	mov	r21,zero
  145414:	20ad883a 	add	r22,r4,r2
  145418:	e00b883a 	mov	r5,fp
  14541c:	8009883a 	mov	r4,r16
  145420:	01800044 	movi	r6,1
  145424:	01483bc0 	call	1483bc <__lshift>
  145428:	1009883a 	mov	r4,r2
  14542c:	a00b883a 	mov	r5,r20
  145430:	1039883a 	mov	fp,r2
  145434:	014850c0 	call	14850c <__mcmp>
  145438:	0080d10e 	bge	zero,r2,145780 <_dtoa_r+0xf10>
  14543c:	b13fffc3 	ldbu	r4,-1(r22)
  145440:	b0ffff84 	addi	r3,r22,-2
  145444:	01800e44 	movi	r6,57
  145448:	d9c00717 	ldw	r7,28(sp)
  14544c:	00000406 	br	145460 <_dtoa_r+0xbf0>
  145450:	38813c26 	beq	r7,r2,145944 <_dtoa_r+0x10d4>
  145454:	19000003 	ldbu	r4,0(r3)
  145458:	102d883a 	mov	r22,r2
  14545c:	18ffffc4 	addi	r3,r3,-1
  145460:	21403fcc 	andi	r5,r4,255
  145464:	2940201c 	xori	r5,r5,128
  145468:	297fe004 	addi	r5,r5,-128
  14546c:	b0bfffc4 	addi	r2,r22,-1
  145470:	29bff726 	beq	r5,r6,145450 <_dtoa_r+0xbe0>
  145474:	21000044 	addi	r4,r4,1
  145478:	11000005 	stb	r4,0(r2)
  14547c:	8009883a 	mov	r4,r16
  145480:	a00b883a 	mov	r5,r20
  145484:	0147cf40 	call	147cf4 <_Bfree>
  145488:	883ea526 	beq	r17,zero,144f20 <_dtoa_r+0x6b0>
  14548c:	a8000426 	beq	r21,zero,1454a0 <_dtoa_r+0xc30>
  145490:	ac400326 	beq	r21,r17,1454a0 <_dtoa_r+0xc30>
  145494:	8009883a 	mov	r4,r16
  145498:	a80b883a 	mov	r5,r21
  14549c:	0147cf40 	call	147cf4 <_Bfree>
  1454a0:	8009883a 	mov	r4,r16
  1454a4:	880b883a 	mov	r5,r17
  1454a8:	0147cf40 	call	147cf4 <_Bfree>
  1454ac:	003e9c06 	br	144f20 <_dtoa_r+0x6b0>
  1454b0:	01c00044 	movi	r7,1
  1454b4:	d9c00e15 	stw	r7,56(sp)
  1454b8:	003d9906 	br	144b20 <_dtoa_r+0x2b0>
  1454bc:	d8c00817 	ldw	r3,32(sp)
  1454c0:	d9000617 	ldw	r4,24(sp)
  1454c4:	d8000b15 	stw	zero,44(sp)
  1454c8:	1907c83a 	sub	r3,r3,r4
  1454cc:	010dc83a 	sub	r6,zero,r4
  1454d0:	d8c00815 	stw	r3,32(sp)
  1454d4:	d9800a15 	stw	r6,40(sp)
  1454d8:	003d9a06 	br	144b44 <_dtoa_r+0x2d4>
  1454dc:	056bc83a 	sub	r21,zero,r21
  1454e0:	dd400815 	stw	r21,32(sp)
  1454e4:	002b883a 	mov	r21,zero
  1454e8:	003d9106 	br	144b30 <_dtoa_r+0x2c0>
  1454ec:	d9000617 	ldw	r4,24(sp)
  1454f0:	014e2f00 	call	14e2f0 <__floatsidf>
  1454f4:	1009883a 	mov	r4,r2
  1454f8:	180b883a 	mov	r5,r3
  1454fc:	980d883a 	mov	r6,r19
  145500:	880f883a 	mov	r7,r17
  145504:	014d0b40 	call	14d0b4 <__eqdf2>
  145508:	103d7426 	beq	r2,zero,144adc <_dtoa_r+0x26c>
  14550c:	d8c00617 	ldw	r3,24(sp)
  145510:	18ffffc4 	addi	r3,r3,-1
  145514:	d8c00615 	stw	r3,24(sp)
  145518:	003d7006 	br	144adc <_dtoa_r+0x26c>
  14551c:	dd000a17 	ldw	r20,40(sp)
  145520:	dcc00817 	ldw	r19,32(sp)
  145524:	0023883a 	mov	r17,zero
  145528:	003f5206 	br	145274 <_dtoa_r+0xa04>
  14552c:	00800704 	movi	r2,28
  145530:	d9000817 	ldw	r4,32(sp)
  145534:	98a7883a 	add	r19,r19,r2
  145538:	a8ab883a 	add	r21,r21,r2
  14553c:	2089883a 	add	r4,r4,r2
  145540:	d9000815 	stw	r4,32(sp)
  145544:	003f8a06 	br	145370 <_dtoa_r+0xb00>
  145548:	d9c00317 	ldw	r7,12(sp)
  14554c:	013efb84 	movi	r4,-1042
  145550:	2509c83a 	sub	r4,r4,r20
  145554:	3908983a 	sll	r4,r7,r4
  145558:	003d2c06 	br	144a0c <_dtoa_r+0x19c>
  14555c:	d8000e15 	stw	zero,56(sp)
  145560:	003d6f06 	br	144b20 <_dtoa_r+0x2b0>
  145564:	04c0050e 	bge	zero,r19,14557c <_dtoa_r+0xd0c>
  145568:	880b883a 	mov	r5,r17
  14556c:	8009883a 	mov	r4,r16
  145570:	980d883a 	mov	r6,r19
  145574:	01483bc0 	call	1483bc <__lshift>
  145578:	1023883a 	mov	r17,r2
  14557c:	9001681e 	bne	r18,zero,145b20 <_dtoa_r+0x12b0>
  145580:	8827883a 	mov	r19,r17
  145584:	d8c00717 	ldw	r3,28(sp)
  145588:	d9000917 	ldw	r4,36(sp)
  14558c:	1dffffc4 	addi	r23,r3,-1
  145590:	1825883a 	mov	r18,r3
  145594:	d8c00317 	ldw	r3,12(sp)
  145598:	b92f883a 	add	r23,r23,r4
  14559c:	ddc00515 	stw	r23,20(sp)
  1455a0:	18c0004c 	andi	r3,r3,1
  1455a4:	d8c00315 	stw	r3,12(sp)
  1455a8:	e009883a 	mov	r4,fp
  1455ac:	a00b883a 	mov	r5,r20
  1455b0:	014466c0 	call	14466c <quorem>
  1455b4:	e009883a 	mov	r4,fp
  1455b8:	880b883a 	mov	r5,r17
  1455bc:	102d883a 	mov	r22,r2
  1455c0:	014850c0 	call	14850c <__mcmp>
  1455c4:	8009883a 	mov	r4,r16
  1455c8:	a00b883a 	mov	r5,r20
  1455cc:	980d883a 	mov	r6,r19
  1455d0:	102b883a 	mov	r21,r2
  1455d4:	014856c0 	call	14856c <__mdiff>
  1455d8:	1007883a 	mov	r3,r2
  1455dc:	10800317 	ldw	r2,12(r2)
  1455e0:	b5c00c04 	addi	r23,r22,48
  1455e4:	10009b1e 	bne	r2,zero,145854 <_dtoa_r+0xfe4>
  1455e8:	180b883a 	mov	r5,r3
  1455ec:	e009883a 	mov	r4,fp
  1455f0:	d8c01515 	stw	r3,84(sp)
  1455f4:	014850c0 	call	14850c <__mcmp>
  1455f8:	d8c01517 	ldw	r3,84(sp)
  1455fc:	8009883a 	mov	r4,r16
  145600:	d8801515 	stw	r2,84(sp)
  145604:	180b883a 	mov	r5,r3
